
NIOS2_V2.elf:     file format elf32-littlenios2
NIOS2_V2.elf
architecture: nios2:r1, flags 0x00000112:
EXEC_P, HAS_SYMS, D_PAGED
start address 0x00080224

Program Header:
    LOAD off    0x00001000 vaddr 0x00080000 paddr 0x00080000 align 2**12
         filesz 0x00000020 memsz 0x00000020 flags r-x
    LOAD off    0x00001020 vaddr 0x00080020 paddr 0x00080020 align 2**12
         filesz 0x0001a0dc memsz 0x0001a0dc flags r-x
    LOAD off    0x0001b0fc vaddr 0x0009a0fc paddr 0x0009b9dc align 2**12
         filesz 0x000018e0 memsz 0x000018e0 flags rw-
    LOAD off    0x000002bc vaddr 0x0009d2bc paddr 0x0009d2bc align 2**12
         filesz 0x00000000 memsz 0x0000042c flags rw-

Sections:
Idx Name          Size      VMA       LMA       File off  Algn
  0 .entry        00000020  00080000  00080000  00001000  2**5
                  CONTENTS, ALLOC, LOAD, READONLY, CODE
  1 .exceptions   00000204  00080020  00080020  00001020  2**2
                  CONTENTS, ALLOC, LOAD, READONLY, CODE
  2 .text         0001952c  00080224  00080224  00001224  2**2
                  CONTENTS, ALLOC, LOAD, READONLY, CODE
  3 .rodata       000009ac  00099750  00099750  0001a750  2**2
                  CONTENTS, ALLOC, LOAD, READONLY, DATA
  4 .rwdata       000018e0  0009a0fc  0009b9dc  0001b0fc  2**2
                  CONTENTS, ALLOC, LOAD, DATA, SMALL_DATA
  5 .bss          0000042c  0009d2bc  0009d2bc  0001d2bc  2**2
                  ALLOC, SMALL_DATA
  6 .onchip_memory 00000000  0009d6e8  0009d6e8  0001c9dc  2**0
                  CONTENTS
  7 .comment      0000002d  00000000  00000000  0001c9dc  2**0
                  CONTENTS, READONLY
  8 .debug_aranges 00001528  00000000  00000000  0001ca10  2**3
                  CONTENTS, READONLY, DEBUGGING, OCTETS
  9 .debug_info   00038861  00000000  00000000  0001df38  2**0
                  CONTENTS, READONLY, DEBUGGING, OCTETS
 10 .debug_abbrev 0000f23e  00000000  00000000  00056799  2**0
                  CONTENTS, READONLY, DEBUGGING, OCTETS
 11 .debug_line   0001920e  00000000  00000000  000659d7  2**0
                  CONTENTS, READONLY, DEBUGGING, OCTETS
 12 .debug_frame  00002eb0  00000000  00000000  0007ebe8  2**2
                  CONTENTS, READONLY, DEBUGGING, OCTETS
 13 .debug_str    00002e0e  00000000  00000000  00081a98  2**0
                  CONTENTS, READONLY, DEBUGGING, OCTETS
 14 .debug_alt_sim_info 00000010  00000000  00000000  000848a8  2**2
                  CONTENTS, READONLY, DEBUGGING, OCTETS
 15 .debug_ranges 00000070  00000000  00000000  000848b8  2**3
                  CONTENTS, READONLY, DEBUGGING, OCTETS
 16 .debug_line_str 00002320  00000000  00000000  00084928  2**0
                  CONTENTS, READONLY, DEBUGGING, OCTETS
 17 .debug_loclists 000202c7  00000000  00000000  00086c48  2**0
                  CONTENTS, READONLY, DEBUGGING, OCTETS
 18 .debug_rnglists 00001e6e  00000000  00000000  000a6f0f  2**0
                  CONTENTS, READONLY, DEBUGGING, OCTETS
 19 .thread_model 00000003  00000000  00000000  000acbba  2**0
                  CONTENTS, READONLY
 20 .cpu          00000005  00000000  00000000  000acbbd  2**0
                  CONTENTS, READONLY
 21 .qsys         00000001  00000000  00000000  000acbc2  2**0
                  CONTENTS, READONLY
 22 .simulation_enabled 00000001  00000000  00000000  000acbc3  2**0
                  CONTENTS, READONLY
 23 .sysid_hash   00000004  00000000  00000000  000acbc4  2**0
                  CONTENTS, READONLY
 24 .sysid_base   00000004  00000000  00000000  000acbc8  2**0
                  CONTENTS, READONLY
 25 .sysid_time   00000004  00000000  00000000  000acbcc  2**0
                  CONTENTS, READONLY
 26 .stderr_dev   00000009  00000000  00000000  000acbd0  2**0
                  CONTENTS, READONLY
 27 .stdin_dev    00000009  00000000  00000000  000acbd9  2**0
                  CONTENTS, READONLY
 28 .stdout_dev   00000009  00000000  00000000  000acbe2  2**0
                  CONTENTS, READONLY
 29 .sopc_system_name 00000010  00000000  00000000  000acbeb  2**0
                  CONTENTS, READONLY
 30 .quartus_project_dir 00000023  00000000  00000000  000acbfb  2**0
                  CONTENTS, READONLY
 31 .jdi          000000e4  00000000  00000000  000acc1e  2**0
                  CONTENTS, READONLY
 32 .sopcinfo     0004a103  00000000  00000000  000acd02  2**0
                  CONTENTS, READONLY
SYMBOL TABLE:
00080000 l    d  .entry	00000000 .entry
00080020 l    d  .exceptions	00000000 .exceptions
00080224 l    d  .text	00000000 .text
00099750 l    d  .rodata	00000000 .rodata
0009a0fc l    d  .rwdata	00000000 .rwdata
0009d2bc l    d  .bss	00000000 .bss
0009d6e8 l    d  .onchip_memory	00000000 .onchip_memory
00000000 l    d  .comment	00000000 .comment
00000000 l    d  .debug_aranges	00000000 .debug_aranges
00000000 l    d  .debug_info	00000000 .debug_info
00000000 l    d  .debug_abbrev	00000000 .debug_abbrev
00000000 l    d  .debug_line	00000000 .debug_line
00000000 l    d  .debug_frame	00000000 .debug_frame
00000000 l    d  .debug_str	00000000 .debug_str
00000000 l    d  .debug_alt_sim_info	00000000 .debug_alt_sim_info
00000000 l    d  .debug_ranges	00000000 .debug_ranges
00000000 l    d  .debug_line_str	00000000 .debug_line_str
00000000 l    d  .debug_loclists	00000000 .debug_loclists
00000000 l    d  .debug_rnglists	00000000 .debug_rnglists
00000000 l    df *ABS*	00000000 crt0.o
0008025c l       .text	00000000 alt_after_alt_main
00000000 l    df *ABS*	00000000 alt_irq_handler.c
00000000 l    df *ABS*	00000000 alt_instruction_exception_entry.c
00000000 l    df *ABS*	00000000 hello_world.c
00000000 l    df *ABS*	00000000 lib2-divmod.c
00000000 l    df *ABS*	00000000 printf.c
00000000 l    df *ABS*	00000000 puts.c
00000000 l    df *ABS*	00000000 scanf.c
00000000 l    df *ABS*	00000000 strlen.c
00000000 l    df *ABS*	00000000 impure.c
00000000 l    df *ABS*	00000000 vfprintf.c
000998fc l     O .rodata	00000010 zeroes.0
00082d70 l     F .text	000000c4 __sbprintf
0009990c l     O .rodata	00000010 blanks.1
00000000 l    df *ABS*	00000000 vfiprintf.c
00082e34 l     F .text	000000f4 __sprint_r.part.0
0009991c l     O .rodata	00000010 zeroes.0
000841f8 l     F .text	000000c4 __sbprintf
0009992c l     O .rodata	00000010 blanks.1
00000000 l    df *ABS*	00000000 vfscanf.c
00099942 l     O .rodata	00000022 basefix.0
00000000 l    df *ABS*	00000000 fflush.c
00000000 l    df *ABS*	00000000 findfp.c
000860e4 l     F .text	00000008 __fp_lock
000860ec l     F .text	0000001c stdio_exit_handler
00086108 l     F .text	00000070 cleanup_stdio
00086178 l     F .text	00000008 __fp_unlock
00086180 l     F .text	00000174 global_stdio_init.part.0
00000000 l    df *ABS*	00000000 fread.c
00000000 l    df *ABS*	00000000 fvwrite.c
00000000 l    df *ABS*	00000000 fwalk.c
00000000 l    df *ABS*	00000000 refill.c
00086c30 l     F .text	00000024 lflush
00000000 l    df *ABS*	00000000 sccl.c
00000000 l    df *ABS*	00000000 sprintf.c
00000000 l    df *ABS*	00000000 stdio.c
00000000 l    df *ABS*	00000000 ungetc.c
00000000 l    df *ABS*	00000000 wsetup.c
00000000 l    df *ABS*	00000000 fputwc.c
00000000 l    df *ABS*	00000000 memchr.c
00000000 l    df *ABS*	00000000 memcpy.c
00000000 l    df *ABS*	00000000 memmove.c
00000000 l    df *ABS*	00000000 memset.c
00000000 l    df *ABS*	00000000 locale.c
00000000 l    df *ABS*	00000000 localeconv.c
00000000 l    df *ABS*	00000000 closer.c
00000000 l    df *ABS*	00000000 reent.c
00000000 l    df *ABS*	00000000 lseekr.c
00000000 l    df *ABS*	00000000 readr.c
00000000 l    df *ABS*	00000000 writer.c
00000000 l    df *ABS*	00000000 sf_nan.c
00000000 l    df *ABS*	00000000 dtoa.c
00087e60 l     F .text	00000218 quorem
00000000 l    df *ABS*	00000000 exit.c
00000000 l    df *ABS*	00000000 freer.c
00000000 l    df *ABS*	00000000 mallocr.c
00000000 l    df *ABS*	00000000 mbtowc_r.c
00000000 l    df *ABS*	00000000 mprec.c
00099a08 l     O .rodata	0000000c p05.0
00000000 l    df *ABS*	00000000 reallocr.c
00000000 l    df *ABS*	00000000 strtod.c
00099b64 l     O .rodata	00000028 tinytens
00099b50 l     O .rodata	00000014 fpi.1
00099b3c l     O .rodata	00000014 fpinan.0
00000000 l    df *ABS*	00000000 strtol.c
0008d838 l     F .text	00000260 _strtol_l.constprop.0
00000000 l    df *ABS*	00000000 strtoul.c
0008dad4 l     F .text	00000248 _strtoul_l.constprop.0
00000000 l    df *ABS*	00000000 wctomb_r.c
00000000 l    df *ABS*	00000000 strtoll.c
0008dd94 l     F .text	000002dc _strtoll_l.constprop.0
00000000 l    df *ABS*	00000000 strtoull.c
0008e0ac l     F .text	000002d4 _strtoull_l.constprop.0
00000000 l    df *ABS*	00000000 mbrtowc.c
00000000 l    df *ABS*	00000000 wcrtomb.c
00000000 l    df *ABS*	00000000 ctype_.c
00000000 l    df *ABS*	00000000 iswspace.c
00000000 l    df *ABS*	00000000 iswspace_l.c
00000000 l    df *ABS*	00000000 svfprintf.c
00099e10 l     O .rodata	00000010 zeroes.0
00099e20 l     O .rodata	00000010 blanks.1
00000000 l    df *ABS*	00000000 fclose.c
00000000 l    df *ABS*	00000000 makebuf.c
00000000 l    df *ABS*	00000000 wbuf.c
00000000 l    df *ABS*	00000000 strcmp.c
00000000 l    df *ABS*	00000000 strncmp.c
00000000 l    df *ABS*	00000000 fstatr.c
00000000 l    df *ABS*	00000000 isattyr.c
00000000 l    df *ABS*	00000000 sbrkr.c
00000000 l    df *ABS*	00000000 errno.c
00000000 l    df *ABS*	00000000 s_nan.c
00000000 l    df *ABS*	00000000 __call_atexit.c
00000000 l    df *ABS*	00000000 assert.c
00000000 l    df *ABS*	00000000 callocr.c
00000000 l    df *ABS*	00000000 gdtoa-gethex.c
0009133c l     F .text	000000e0 rshift
00000000 l    df *ABS*	00000000 gdtoa-hexnan.c
00000000 l    df *ABS*	00000000 fiprintf.c
00000000 l    df *ABS*	00000000 svfiprintf.c
00099fb0 l     O .rodata	00000010 zeroes.0
00099fc0 l     O .rodata	00000010 blanks.1
00000000 l    df *ABS*	00000000 vfiprintfr_1.c
00000000 l    df *ABS*	00000000 abort.c
00000000 l    df *ABS*	00000000 signal.c
00000000 l    df *ABS*	00000000 signalr.c
00000000 l    df *ABS*	00000000 libgcc2.c
00000000 l    df *ABS*	00000000 libgcc2.c
00000000 l    df *ABS*	00000000 libgcc2.c
00000000 l    df *ABS*	00000000 libgcc2.c
00000000 l    df *ABS*	00000000 libgcc2.c
00000000 l    df *ABS*	00000000 libgcc2.c
00000000 l    df *ABS*	00000000 libgcc2.c
00000000 l    df *ABS*	00000000 lib2-mul.c
00000000 l    df *ABS*	00000000 lesf2.c
00000000 l    df *ABS*	00000000 unordsf2.c
00000000 l    df *ABS*	00000000 adddf3.c
00000000 l    df *ABS*	00000000 divdf3.c
00000000 l    df *ABS*	00000000 eqdf2.c
00000000 l    df *ABS*	00000000 gedf2.c
00000000 l    df *ABS*	00000000 ledf2.c
00000000 l    df *ABS*	00000000 muldf3.c
00000000 l    df *ABS*	00000000 subdf3.c
00000000 l    df *ABS*	00000000 unorddf2.c
00000000 l    df *ABS*	00000000 fixdfsi.c
00000000 l    df *ABS*	00000000 floatsidf.c
00000000 l    df *ABS*	00000000 floatunsidf.c
00000000 l    df *ABS*	00000000 truncdfsf2.c
00000000 l    df *ABS*	00000000 libgcc2.c
00000000 l    df *ABS*	00000000 libgcc2.c
00000000 l    df *ABS*	00000000 alt_close.c
0009704c l     F .text	0000003c alt_get_errno
00000000 l    df *ABS*	00000000 alt_dev.c
00097164 l     F .text	0000002c alt_dev_null_write
00000000 l    df *ABS*	00000000 alt_errno.c
00000000 l    df *ABS*	00000000 alt_exit.c
00000000 l    df *ABS*	00000000 alt_fstat.c
000971cc l     F .text	0000003c alt_get_errno
00000000 l    df *ABS*	00000000 alt_getpid.c
00000000 l    df *ABS*	00000000 alt_isatty.c
000972e4 l     F .text	0000003c alt_get_errno
00000000 l    df *ABS*	00000000 alt_kill.c
000973d0 l     F .text	0000003c alt_get_errno
00000000 l    df *ABS*	00000000 alt_load.c
000974fc l     F .text	00000068 alt_load_section
00000000 l    df *ABS*	00000000 alt_lseek.c
000975e8 l     F .text	0000003c alt_get_errno
00000000 l    df *ABS*	00000000 alt_main.c
00000000 l    df *ABS*	00000000 alt_malloc_lock.c
00000000 l    df *ABS*	00000000 alt_read.c
000977c8 l     F .text	0000003c alt_get_errno
00000000 l    df *ABS*	00000000 alt_release_fd.c
00000000 l    df *ABS*	00000000 alt_sbrk.c
0009b9cc l     O .rwdata	00000004 heap_end
00000000 l    df *ABS*	00000000 alt_write.c
00097a34 l     F .text	0000003c alt_get_errno
00000000 l    df *ABS*	00000000 alt_sys_init.c
00097b74 l     F .text	00000034 alt_dev_reg
0009a940 l     O .rwdata	00001060 jtag_uart
00000000 l    df *ABS*	00000000 altera_avalon_jtag_uart_fd.c
00000000 l    df *ABS*	00000000 altera_avalon_jtag_uart_init.c
00097e6c l     F .text	00000214 altera_avalon_jtag_uart_irq
00098080 l     F .text	000000a8 altera_avalon_jtag_uart_timeout
00000000 l    df *ABS*	00000000 altera_avalon_jtag_uart_ioctl.c
00000000 l    df *ABS*	00000000 altera_avalon_jtag_uart_read.c
00000000 l    df *ABS*	00000000 altera_avalon_jtag_uart_write.c
00000000 l    df *ABS*	00000000 altera_avalon_timer_sc.c
000986cc l     F .text	0000007c alt_avalon_timer_sc_irq
00000000 l    df *ABS*	00000000 alt_alarm_start.c
00000000 l    df *ABS*	00000000 alt_dcache_flush_all.c
00000000 l    df *ABS*	00000000 alt_dev_llist_insert.c
0009894c l     F .text	0000003c alt_get_errno
00000000 l    df *ABS*	00000000 alt_do_ctors.c
00000000 l    df *ABS*	00000000 alt_do_dtors.c
00000000 l    df *ABS*	00000000 alt_icache_flush_all.c
00000000 l    df *ABS*	00000000 alt_iic.c
00000000 l    df *ABS*	00000000 alt_iic_isr_register.c
00000000 l    df *ABS*	00000000 alt_io_redirect.c
00098db0 l     F .text	000000d4 alt_open_fd
00000000 l    df *ABS*	00000000 alt_irq_vars.c
00000000 l    df *ABS*	00000000 alt_open.c
00098f00 l     F .text	0000003c alt_get_errno
00098f3c l     F .text	000000dc alt_file_locked
00000000 l    df *ABS*	00000000 alt_tick.c
00000000 l    df *ABS*	00000000 altera_nios2_gen2_irq.c
00000000 l    df *ABS*	00000000 alt_find_dev.c
00000000 l    df *ABS*	00000000 alt_find_file.c
00000000 l    df *ABS*	00000000 alt_get_fd.c
00000000 l    df *ABS*	00000000 atexit.c
00000000 l    df *ABS*	00000000 memcmp.c
00000000 l    df *ABS*	00000000 __atexit.c
0009d2f4 g     O .bss	00000004 alt_instruction_exception_handler
0008b550 g     F .text	00000070 _mprec_log10
0008b62c g     F .text	00000060 __any_on
00090f7c g     F .text	00000058 _isatty_r
00099a14 g     O .rodata	00000028 __mprec_tinytens
00097704 g     F .text	0000007c alt_main
000807ec g     F .text	000000d0 _puts_r
0009d458 g     O .bss	00000100 alt_irq
00087d2c g     F .text	00000064 _lseek_r
0009b9dc g       *ABS*	00000000 __flash_rwdata_start
00095820 g     F .text	00000094 .hidden __eqdf2
0009d6e8 g       *ABS*	00000000 __alt_heap_start
00093948 g     F .text	00000070 .hidden __floatdidf
00093668 g     F .text	00000060 _kill_r
000807b4 g     F .text	00000038 printf
0008e4c8 g     F .text	0000006c _wcrtomb_r
00093208 g     F .text	0000008c _signal_r
00087088 g     F .text	0000005c __sseek
00086414 g     F .text	00000028 __sinit
00090c14 g     F .text	00000148 __swbuf_r
00087ae8 g     F .text	0000007c _setlocale_r
00087328 g     F .text	00000018 ungetc
000977a4 g     F .text	00000024 __malloc_unlock
0008e384 g     F .text	0000001c strtoull_l
0008d540 g     F .text	0000000c _strtod_r
0009b9a4 g     O .rwdata	00000002 OVERFLOW
00087880 g     F .text	00000128 memmove
0008a4d4 g     F .text	000000a4 _Balloc
000958b4 g     F .text	000000fc .hidden __gtdf2
00099348 g     F .text	00000024 altera_nios2_gen2_irq_init
0009102c g     F .text	0000000c __errno
00080000 g     F .entry	0000000c __reset
00087bec g     F .text	00000008 __localeconv_l
0009d2c4 g     O .bss	00000004 __stdio_exit_handler
00080020 g       *ABS*	00000000 __flash_exceptions_start
00090f1c g     F .text	00000060 _fstat_r
0009d2c0 g     O .bss	00000004 errno
00085d88 g     F .text	0000001c __svfscanf
00087000 g     F .text	00000008 __seofread
00092180 g     F .text	00001010 ___svfiprintf_internal_r
0009d2dc g     O .bss	00000004 alt_argv
000a39a0 g       *ABS*	00000000 _gp
00080260 g     F .text	00000074 calcula_max
000972c4 g     F .text	00000020 getpid
0009a7c0 g     O .rwdata	00000180 alt_fd_list
0009936c g     F .text	00000090 alt_find_dev
00087780 g     F .text	00000100 memcpy
00091cf4 g     F .text	00000264 __hexnan
00096d20 g     F .text	000000b8 .hidden __floatsidf
00098e84 g     F .text	0000007c alt_io_redirect
000959b0 g     F .text	000000f8 .hidden __ltdf2
0008e074 g     F .text	0000001c strtoll_l
00099750 g       *ABS*	00000000 __DTOR_END__
000808bc g     F .text	00000010 puts
000995bc g     F .text	00000074 alt_exception_cause_generated_bad_addr
0008e438 g     F .text	00000090 mbrtowc
00085da4 g     F .text	00000050 _vfscanf_r
0008b4ac g     F .text	000000a4 __ratio
000841dc g     F .text	0000001c __vfiprintf_internal
00098284 g     F .text	00000220 altera_avalon_jtag_uart_read
00080784 g     F .text	00000030 _printf_r
000806c4 g     F .text	00000064 .hidden __udivsi3
00097320 g     F .text	000000b0 isatty
00093294 g     F .text	000000b0 _raise_r
0008e5bc g     F .text	00000008 iswspace
0009115c g     F .text	00000064 __assert_func
00099a64 g     O .rodata	000000c8 __mprec_tens
0008e090 g     F .text	0000001c strtoll
00094514 g     F .text	000000d0 .hidden __lesf2
000937d0 g     F .text	00000074 .hidden __fixunsdfsi
0009d2d0 g     O .bss	00000004 __malloc_top_pad
000936c8 g     F .text	00000004 _getpid_r
0008dd3c g     F .text	0000001c strtoul
00087bf4 g     F .text	0000000c _localeconv_r
0008e380 g     F .text	00000004 _strtoull_r
0008a94c g     F .text	000000b0 __i2b
000866e8 g     F .text	000004a0 __sfvwrite_r
00093344 g     F .text	000000bc __sigtramp_r
00090fd4 g     F .text	00000058 _sbrk_r
00087d90 g     F .text	00000064 _read_r
0009b9c4 g     O .rwdata	00000004 alt_max_fd
000908e0 g     F .text	000000f0 _fclose_r
00086058 g     F .text	0000008c fflush
0009d2cc g     O .bss	00000004 __malloc_max_sbrked_mem
00094630 g     F .text	00000904 .hidden __adddf3
0008b254 g     F .text	00000100 __b2d
00093f90 g     F .text	0000055c .hidden __umoddi3
00097624 g     F .text	000000e0 lseek
0008b68c g     F .text	000005ec _realloc_r
0009d6e8 g       *ABS*	00000000 __bss_end
00098cc8 g     F .text	000000e8 alt_iic_isr_register
0008da9c g     F .text	0000001c strtol_l
0009921c g     F .text	0000012c alt_tick
00099eb0 g     O .rodata	00000100 __hexdig
000939b8 g     F .text	000005d8 .hidden __udivdi3
000875e8 g     F .text	00000024 _fputwc_r
00099a3c g     O .rodata	00000028 __mprec_bigtens
0008a6f0 g     F .text	00000138 __s2b
00093194 g     F .text	00000018 abort
00096dd8 g     F .text	00000090 .hidden __floatunsidf
0008af6c g     F .text	00000058 __mcmp
00086444 g     F .text	00000018 __fp_lock_all
00098c7c g     F .text	0000004c alt_ic_irq_enabled
00099178 g     F .text	000000a4 alt_alarm_stop
0008dab8 g     F .text	0000001c strtol
0009d2e4 g     O .bss	00000004 alt_irq_active
000800fc g     F .exceptions	000000c8 alt_irq_handler
0009a798 g     O .rwdata	00000028 alt_dev_null
0008bc78 g     F .text	000018c8 _strtod_l
00091ca4 g     F .text	00000050 __match
00087c64 g     F .text	000000c8 _reclaim_reent
000803e4 g     F .text	00000098 atualizaDutyCicle
0009892c g     F .text	00000020 alt_dcache_flush_all
0008a828 g     F .text	00000074 __hi0bits
00096ca0 g     F .text	00000080 .hidden __fixdfsi
0008d568 g     F .text	00000020 strtod
0009b9dc g       *ABS*	00000000 __ram_rwdata_end
00080000 g       *ABS*	00000000 __alt_mem_onchip_memory
0009d2f8 g     O .bss	00000138 __sf
0009b9bc g     O .rwdata	00000008 alt_dev_list
00097a70 g     F .text	00000104 write
0009a0fc g       *ABS*	00000000 __ram_rodata_end
00097208 g     F .text	000000bc fstat
0009740c g     F .text	000000f0 kill
000959b0 g     F .text	000000f8 .hidden __ledf2
0008d588 g     F .text	00000144 strtof_l
0008aca4 g     F .text	00000140 __pow5mult
00082f40 g     F .text	0000129c ___vfiprintf_internal_r
00080728 g     F .text	0000005c .hidden __umodsi3
00080908 g     F .text	00000030 _scanf_r
0009d6e8 g       *ABS*	00000000 end
00097dac g     F .text	000000c0 altera_avalon_jtag_uart_init
000801c4 g     F .exceptions	00000060 alt_instruction_exception_entry
00099750 g       *ABS*	00000000 __CTOR_LIST__
000e1a80 g       *ABS*	00000000 __alt_stack_pointer
00098748 g     F .text	00000084 alt_avalon_timer_sc_init
00096ffc g     F .text	00000050 .hidden __clzsi2
000984a4 g     F .text	00000228 altera_avalon_jtag_uart_write
0008643c g     F .text	00000004 __sfp_lock_acquire
00087684 g     F .text	000000fc memchr
000809d0 g     F .text	00002384 ___vfprintf_internal_r
00086ef4 g     F .text	00000054 _sprintf_r
000899b4 g     F .text	00000308 _free_r
00099c90 g     O .rodata	00000180 _ctype_b
00087b64 g     F .text	0000000c __locale_mb_cur_max
00091044 g     F .text	00000118 __call_exitprocs
0009d558 g     O .bss	00000190 __atexit0
0009b9ac g     O .rwdata	00000004 __malloc_sbrk_base
00080224 g     F .text	0000003c _start
0009d2e8 g     O .bss	00000004 _alt_tick_rate
0008e070 g     F .text	00000004 _strtoll_r
0008ade4 g     F .text	00000188 __lshift
0009d2ec g     O .bss	00000008 _alt_nticks
000934b4 g     F .text	00000098 signal
00097804 g     F .text	00000108 read
00097be4 g     F .text	00000064 alt_sys_init
00091fb0 g     F .text	000001d0 __ssprint_r
000996bc g     F .text	00000094 __register_exitproc
00090e2c g     F .text	000000f0 strncmp
0008a9fc g     F .text	000002a8 __multiply
00098128 g     F .text	00000068 altera_avalon_jtag_uart_close
000944ec g     F .text	00000028 .hidden __mulsi3
0009a0fc g       *ABS*	00000000 __ram_rwdata_start
00099750 g       *ABS*	00000000 __ram_rodata_start
0009d430 g     O .bss	00000028 __malloc_current_mallinfo
0008b354 g     F .text	00000158 __d2b
00097c48 g     F .text	00000060 altera_avalon_jtag_uart_read_fd
0008dd1c g     F .text	00000004 _strtoul_r
00099504 g     F .text	000000b8 alt_get_fd
00087c0c g     F .text	00000058 _close_r
000802d4 g     F .text	00000110 atualizaFrequenciaPWM
00099644 g     F .text	00000078 memcmp
00097d08 g     F .text	00000050 altera_avalon_jtag_uart_close_fd
0009d6e8 g       *ABS*	00000000 __alt_stack_base
00097d58 g     F .text	00000054 altera_avalon_jtag_uart_ioctl_fd
00087340 g     F .text	00000144 __swsetup_r
00094f34 g     F .text	000008ec .hidden __divdf3
000862f4 g     F .text	00000120 __sfp
0008b5c0 g     F .text	0000006c __copybits
0009a390 g     O .rwdata	00000408 __malloc_av_
0009d2d4 g     O .bss	00000004 __atexit
00095aa8 g     F .text	00000808 .hidden __muldf3
00086fac g     F .text	00000054 __sread
000866b4 g     F .text	00000034 fread
000993fc g     F .text	00000108 alt_find_file
00098988 g     F .text	000000a8 alt_dev_llist_insert
00097780 g     F .text	00000024 __malloc_lock
0009797c g     F .text	000000b8 sbrk
0008e5e8 g     F .text	000022f8 ___svfprintf_internal_r
00085ffc g     F .text	0000005c _fflush_r
000911d4 g     F .text	00000168 _calloc_r
0008e3a0 g     F .text	0000001c strtoull
0009d2bc g       *ABS*	00000000 __bss_start
000879a8 g     F .text	00000140 memset
0008047c g     F .text	00000154 main
0009d2e0 g     O .bss	00000004 alt_envp
0009d2c8 g     O .bss	00000004 __malloc_max_total_mem
00097ca8 g     F .text	00000060 altera_avalon_jtag_uart_write_fd
00090d5c g     F .text	00000018 __swbuf
00094514 g     F .text	000000d0 .hidden __ltsf2
00086474 g     F .text	00000240 _fread_r
000870e4 g     F .text	00000008 __sclose
000e1a80 g       *ABS*	00000000 __alt_heap_limit
000909d0 g     F .text	00000010 fclose
0008da98 g     F .text	00000004 _strtol_r
00096e68 g     F .text	00000194 .hidden __truncdfsf2
00088078 g     F .text	000017e8 _dtoa_r
00089cbc g     F .text	000007c8 _malloc_r
0008dd64 g     F .text	00000030 __ascii_wctomb
0009b9c8 g     O .rwdata	00000004 alt_errno
00091f58 g     F .text	00000020 _fiprintf_r
000870ec g     F .text	000000cc __submore
0009354c g     F .text	00000060 _init_signal
0008a484 g     F .text	0000000c _mbtowc_r
000805d0 g     F .text	00000080 .hidden __divsi3
00089890 g     F .text	00000124 _malloc_trim_r
00099750 g       *ABS*	00000000 __CTOR_END__
00090d74 g     F .text	000000b8 strcmp
00099750 g       *ABS*	00000000 __flash_rodata_start
00099750 g       *ABS*	00000000 __DTOR_LIST__
0008dd20 g     F .text	0000001c strtoul_l
000938b8 g     F .text	00000090 .hidden __fixunsdfdi
00095820 g     F .text	00000094 .hidden __nedf2
00097ba8 g     F .text	0000003c alt_irq_init
0009790c g     F .text	00000070 alt_release_fd
00086f48 g     F .text	00000064 sprintf
00099fd0 g     O .rodata	00000100 .hidden __clz_tab
0009d2bc g     O .bss	00000004 _PathLocale
00093844 g     F .text	00000074 .hidden __fixdfdi
0008d6cc g     F .text	0000016c strtof
0008d54c g     F .text	0000001c strtod_l
00099630 g     F .text	00000014 atexit
00087df4 g     F .text	00000064 _write_r
0008e5c4 g     F .text	00000024 iswspace_l
00087b70 g     F .text	0000007c setlocale
000808cc g     F .text	0000003c scanf
00087e58 g     F .text	00000008 nanf
0009b9a8 g     O .rwdata	00000004 _impure_ptr
0009d2d8 g     O .bss	00000004 alt_argc
00085df4 g     F .text	00000208 __sflush_r
0008e3bc g     F .text	0000007c _mbrtowc_r
00098a94 g     F .text	00000064 _do_dtors
00086b88 g     F .text	000000a8 _fwalk_sglue
00086c54 g     F .text	000001c0 __srefill_r
0009b9a0 g     O .rwdata	00000004 frequencia_sistema
00080020 g       .exceptions	00000000 alt_irq_entry
0008a490 g     F .text	00000044 __ascii_mbtowc
0008b1f4 g     F .text	00000060 __ulp
0008645c g     F .text	00000018 __fp_unlock_all
0009b9b4 g     O .rwdata	00000008 alt_fs_list
00091038 g     F .text	0000000c nan
00080020 g       *ABS*	00000000 __ram_exceptions_start
00087c00 g     F .text	0000000c localeconv
00090b88 g     F .text	0000008c __swhatbuf_r
00098b18 g     F .text	00000050 alt_ic_isr_register
0009a218 g     O .rwdata	0000000c __sglue
0009b9dc g       *ABS*	00000000 _edata
0009d6e8 g       *ABS*	00000000 _end
000945e4 g     F .text	0000004c .hidden __unordsf2
00087484 g     F .text	00000164 __fputwc
00080224 g       *ABS*	00000000 __ram_exceptions_end
00085d20 g     F .text	00000068 vfscanf
00098190 g     F .text	000000f4 altera_avalon_jtag_uart_ioctl
00098bf0 g     F .text	0000008c alt_ic_irq_disable
00087008 g     F .text	00000080 __swrite
0009b9b0 g     O .rwdata	00000004 __malloc_trim_threshold
00089860 g     F .text	00000030 exit
00091f78 g     F .text	00000038 fiprintf
00093190 g     F .text	00000004 _vfiprintf_r
0008afc4 g     F .text	00000230 __mdiff
00080650 g     F .text	00000074 .hidden __modsi3
0009a0fc g     O .rwdata	0000011c _impure_data
000e1a80 g       *ABS*	00000000 __alt_data_end
00080020 g     F .exceptions	00000000 alt_exception
00086440 g     F .text	00000004 __sfp_lock_release
00086e14 g     F .text	000000e0 __sccl
00099b8c g     O .rodata	00000101 _ctype_
00096c4c g     F .text	00000054 .hidden __unorddf2
00097190 g     F .text	0000003c _exit
000987cc g     F .text	00000160 alt_alarm_start
000936cc g     F .text	00000104 .hidden __muldi3
000909e0 g     F .text	000001a8 __smakebuf_r
00080938 g     F .text	00000098 strlen
000931ac g     F .text	0000005c _init_signal_r
00099018 g     F .text	00000160 open
000958b4 g     F .text	000000fc .hidden __gedf2
0009141c g     F .text	00000888 __gethex
000911c0 g     F .text	00000014 __assert
00082f28 g     F .text	00000018 __sprint_r
00098af8 g     F .text	00000020 alt_icache_flush_all
0009b9d0 g     O .rwdata	00000004 alt_priority_mask
00098b68 g     F .text	00000088 alt_ic_irq_enable
00082d54 g     F .text	0000001c __vfprintf_internal
0008dd58 g     F .text	0000000c _wctomb_r
000962b0 g     F .text	0000099c .hidden __subdf3
0008a89c g     F .text	000000b0 __lo0bits
000842bc g     F .text	00001a64 __svfscanf_r
0009b9d4 g     O .rwdata	00000008 alt_alarm_list
000871b8 g     F .text	00000170 _ungetc_r
00098a30 g     F .text	00000064 _do_ctors
000935ac g     F .text	000000bc __sigtramp
0008e534 g     F .text	00000088 wcrtomb
00097088 g     F .text	000000dc close
0009a224 g     O .rwdata	0000016c __global_locale
00097564 g     F .text	00000084 alt_load
0008760c g     F .text	00000078 fputwc
00093400 g     F .text	000000b4 raise
0008a59c g     F .text	00000154 __multadd
0008a578 g     F .text	00000024 _Bfree



Disassembly of section .entry:

00080000 <__reset>:
 * Jump to the _start entry point in the .text section if reset code
 * is allowed or if optimizing for RTL simulation.
 */
#if defined(ALT_ALLOW_CODE_AT_RESET) || defined(ALT_SIM_OPTIMIZE)
    /* Jump to the _start entry point in the .text section. */
    movhi r1, %hi(_start)
   80000:	00400234 	movhi	at,8
    ori r1, r1, %lo(_start)
   80004:	08408914 	ori	at,at,548
    jmp r1
   80008:	0800683a 	jmp	at
	...

Disassembly of section .exceptions:

00080020 <alt_exception>:

#else /* ALT_EXCEPTION_STACK disabled */
        /* 
         * Reserve space on normal stack for registers about to be pushed.
         */
        addi  sp, sp, -76
   80020:	deffed04 	addi	sp,sp,-76
         * documentation for details).
         *
         * Leave a gap in the stack frame at 4(sp) for the muldiv handler to
         * store zero into.
         */
        stw   ra,  0(sp)
   80024:	dfc00015 	stw	ra,0(sp)
        stw   r1,   8(sp)
   80028:	d8400215 	stw	at,8(sp)
        stw   r2,  12(sp)
   8002c:	d8800315 	stw	r2,12(sp)
        stw   r3,  16(sp)
   80030:	d8c00415 	stw	r3,16(sp)
        stw   r4,  20(sp)
   80034:	d9000515 	stw	r4,20(sp)
        stw   r5,  24(sp)
   80038:	d9400615 	stw	r5,24(sp)
        stw   r6,  28(sp)
   8003c:	d9800715 	stw	r6,28(sp)
        stw   r7,  32(sp)
   80040:	d9c00815 	stw	r7,32(sp)
        rdctl r5, estatus   /* Read early to avoid usage stall */
   80044:	000b307a 	rdctl	r5,estatus
        stw   r8,  36(sp)
   80048:	da000915 	stw	r8,36(sp)
        stw   r9,  40(sp)
   8004c:	da400a15 	stw	r9,40(sp)
        stw   r10, 44(sp)
   80050:	da800b15 	stw	r10,44(sp)
        stw   r11, 48(sp)
   80054:	dac00c15 	stw	r11,48(sp)
        stw   r12, 52(sp)
   80058:	db000d15 	stw	r12,52(sp)
        stw   r13, 56(sp)
   8005c:	db400e15 	stw	r13,56(sp)
        stw   r14, 60(sp)
   80060:	db800f15 	stw	r14,60(sp)
        stw   r15, 64(sp)
   80064:	dbc01015 	stw	r15,64(sp)
        /*
         * ea-4 contains the address of the instruction being executed
         * when the exception occured. For interrupt exceptions, we will
         * will be re-issue the isntruction. Store it in 72(sp)
         */
        stw   r5,  68(sp)  /* estatus */
   80068:	d9401115 	stw	r5,68(sp)
        addi  r15, ea, -4  /* instruction that caused exception */
   8006c:	ebffff04 	addi	r15,ea,-4
        stw   r15,  72(sp)
   80070:	dbc01215 	stw	r15,72(sp)
#else
        /*
         * Test to see if the exception was a software exception or caused 
         * by an external interrupt, and vector accordingly.
         */
        rdctl r4, ipending
   80074:	0009313a 	rdctl	r4,ipending
        andi  r2, r5, 1
   80078:	2880004c 	andi	r2,r5,1
        beq   r2, zero, .Lnot_irq
   8007c:	10000326 	beq	r2,zero,8008c <alt_exception+0x6c>
        beq   r4, zero, .Lnot_irq
   80080:	20000226 	beq	r4,zero,8008c <alt_exception+0x6c>
        /*
         * Now that all necessary registers have been preserved, call 
         * alt_irq_handler() to process the interrupts.
         */

        call alt_irq_handler
   80084:	00800fc0 	call	800fc <alt_irq_handler>

        .section .exceptions.irqreturn, "xa"

        br    .Lexception_exit
   80088:	00000706 	br	800a8 <alt_exception+0x88>
         * upon completion, so we write ea (address of instruction *after*
         * the one where the exception occured) into 72(sp). The actual
         * instruction that caused the exception is written in r2, which these
         * handlers will utilize.
         */
        stw ea, 72(sp) /* EA is PC+4 so will skip over instruction causing exception */
   8008c:	df401215 	stw	ea,72(sp)
.Lunknown_16bit:
        addi.n r4, r4, 2 /* Need PC+2 to skip over instruction causing exception */
        stw r4, 72(sp)

#else /* CDX is not Enabled and all instructions are 32bits */
        ldw r2, -4(ea) /* Instruction value that caused exception */
   80090:	e8bfff17 	ldw	r2,-4(ea)
   80094:	e93fff04 	addi	r4,ea,-4
   80098:	00801c40 	call	801c4 <alt_instruction_exception_entry>
   8009c:	1000021e 	bne	r2,zero,800a8 <alt_exception+0x88>
   800a0:	ebffff04 	addi	r15,ea,-4
   800a4:	dbc01215 	stw	r15,72(sp)
        /* 
         * Restore the saved registers, so that all general purpose registers 
         * have been restored to their state at the time the interrupt occured.
         */

        ldw   r5,  68(sp)
   800a8:	d9401117 	ldw	r5,68(sp)
        ldw   ea,  72(sp)  /* This becomes the PC once eret is executed */
   800ac:	df401217 	ldw	ea,72(sp)
        ldw   ra,   0(sp)
   800b0:	dfc00017 	ldw	ra,0(sp)

        wrctl estatus, r5
   800b4:	2801707a 	wrctl	estatus,r5

        ldw   r1,   8(sp)
   800b8:	d8400217 	ldw	at,8(sp)
        ldw   r2,  12(sp)
   800bc:	d8800317 	ldw	r2,12(sp)
        ldw   r3,  16(sp)
   800c0:	d8c00417 	ldw	r3,16(sp)
        ldw   r4,  20(sp)
   800c4:	d9000517 	ldw	r4,20(sp)
        ldw   r5,  24(sp)
   800c8:	d9400617 	ldw	r5,24(sp)
        ldw   r6,  28(sp)
   800cc:	d9800717 	ldw	r6,28(sp)
        ldw   r7,  32(sp)
   800d0:	d9c00817 	ldw	r7,32(sp)

#if defined(ALT_EXCEPTION_STACK) && defined(ALT_STACK_CHECK)
        ldw   et, %gprel(alt_exception_old_stack_limit)(gp)
#endif

        ldw   r8,  36(sp)
   800d4:	da000917 	ldw	r8,36(sp)
        ldw   r9,  40(sp)
   800d8:	da400a17 	ldw	r9,40(sp)
        ldw   r10, 44(sp)
   800dc:	da800b17 	ldw	r10,44(sp)
        ldw   r11, 48(sp)
   800e0:	dac00c17 	ldw	r11,48(sp)
        ldw   r12, 52(sp)
   800e4:	db000d17 	ldw	r12,52(sp)
        ldw   r13, 56(sp)
   800e8:	db400e17 	ldw	r13,56(sp)
        ldw   r14, 60(sp)
   800ec:	db800f17 	ldw	r14,60(sp)
        ldw   r15, 64(sp)
   800f0:	dbc01017 	ldw	r15,64(sp)
        stw   et, %gprel(alt_stack_limit_value)(gp)
        stw   zero, %gprel(alt_exception_old_stack_limit)(gp)
#endif /* ALT_STACK_CHECK */
        ldw   sp,  76(sp)
#else /* ALT_EXCEPTION_STACK disabled */
        addi  sp, sp, 76
   800f4:	dec01304 	addi	sp,sp,76

        /*
         * Return to the interrupted instruction.
         */

        eret
   800f8:	ef80083a 	eret

000800fc <alt_irq_handler>:
 * instruction is present if the macro ALT_CI_INTERRUPT_VECTOR defined.
 */

void alt_irq_handler (void) __attribute__ ((section (".exceptions")));
void alt_irq_handler (void)
{
   800fc:	defff904 	addi	sp,sp,-28
   80100:	dfc00615 	stw	ra,24(sp)
   80104:	df000515 	stw	fp,20(sp)
   80108:	df000504 	addi	fp,sp,20
  
  /*
   * Notify the operating system that we are at interrupt level.
   */ 
  
  ALT_OS_INT_ENTER();
   8010c:	0001883a 	nop
#ifndef NIOS2_EIC_PRESENT
static ALT_INLINE alt_u32 ALT_ALWAYS_INLINE alt_irq_pending (void)
{
  alt_u32 active;

  NIOS2_READ_IPENDING (active);
   80110:	0005313a 	rdctl	r2,ipending
   80114:	e0bffc15 	stw	r2,-16(fp)

  return active;
   80118:	e0bffc17 	ldw	r2,-16(fp)
   * Consider the case where the high priority interupt is asserted during
   * the interrupt entry sequence for a lower priority interrupt to see why
   * this is the case.
   */

  active = alt_irq_pending ();
   8011c:	e0bfff15 	stw	r2,-4(fp)

  do
  {
    i = 0;
   80120:	e03ffd15 	stw	zero,-12(fp)
    mask = 1;
   80124:	00800044 	movi	r2,1
   80128:	e0bffe15 	stw	r2,-8(fp)
     * called to clear the interrupt condition.
     */

    do
    {
      if (active & mask)
   8012c:	e0ffff17 	ldw	r3,-4(fp)
   80130:	e0bffe17 	ldw	r2,-8(fp)
   80134:	1884703a 	and	r2,r3,r2
   80138:	10001126 	beq	r2,zero,80180 <alt_irq_handler+0x84>
      { 
#ifdef ALT_ENHANCED_INTERRUPT_API_PRESENT
        alt_irq[i].handler(alt_irq[i].context); 
   8013c:	e0bffd17 	ldw	r2,-12(fp)
   80140:	100690fa 	slli	r3,r2,3
   80144:	008002b4 	movhi	r2,10
   80148:	1885883a 	add	r2,r3,r2
   8014c:	10f51617 	ldw	r3,-11176(r2)
   80150:	e0bffd17 	ldw	r2,-12(fp)
   80154:	100890fa 	slli	r4,r2,3
   80158:	008002b4 	movhi	r2,10
   8015c:	2085883a 	add	r2,r4,r2
   80160:	10b51717 	ldw	r2,-11172(r2)
   80164:	1009883a 	mov	r4,r2
   80168:	183ee83a 	callr	r3
#else
        alt_irq[i].handler(alt_irq[i].context, i); 
#endif
        break;
   8016c:	0001883a 	nop
  NIOS2_READ_IPENDING (active);
   80170:	0005313a 	rdctl	r2,ipending
   80174:	e0bffb15 	stw	r2,-20(fp)
  return active;
   80178:	e0bffb17 	ldw	r2,-20(fp)
   8017c:	00000706 	br	8019c <alt_irq_handler+0xa0>
      }
      mask <<= 1;
   80180:	e0bffe17 	ldw	r2,-8(fp)
   80184:	1085883a 	add	r2,r2,r2
   80188:	e0bffe15 	stw	r2,-8(fp)
      i++;
   8018c:	e0bffd17 	ldw	r2,-12(fp)
   80190:	10800044 	addi	r2,r2,1
   80194:	e0bffd15 	stw	r2,-12(fp)
      if (active & mask)
   80198:	003fe406 	br	8012c <alt_irq_handler+0x30>

    } while (1);

    active = alt_irq_pending ();
   8019c:	e0bfff15 	stw	r2,-4(fp)
    
  } while (active);
   801a0:	e0bfff17 	ldw	r2,-4(fp)
   801a4:	103fde1e 	bne	r2,zero,80120 <alt_irq_handler+0x24>

  /*
   * Notify the operating system that interrupt processing is complete.
   */ 

  ALT_OS_INT_EXIT();
   801a8:	0001883a 	nop
}
   801ac:	0001883a 	nop
   801b0:	e037883a 	mov	sp,fp
   801b4:	dfc00117 	ldw	ra,4(sp)
   801b8:	df000017 	ldw	fp,0(sp)
   801bc:	dec00204 	addi	sp,sp,8
   801c0:	f800283a 	ret

000801c4 <alt_instruction_exception_entry>:
 * that handler if it has been registered. Absent a handler, it will
 * break break or hang as discussed below.
 */
int 
alt_instruction_exception_entry (alt_u32 exception_pc)
{
   801c4:	defffb04 	addi	sp,sp,-20
   801c8:	dfc00415 	stw	ra,16(sp)
   801cc:	df000315 	stw	fp,12(sp)
   801d0:	df000304 	addi	fp,sp,12
   801d4:	e13ffd15 	stw	r4,-12(fp)
  cause = ( (cause & NIOS2_EXCEPTION_REG_CAUSE_MASK) >>
              NIOS2_EXCEPTION_REG_CAUSE_OFST );

  NIOS2_READ_BADADDR(badaddr);
#else
  cause = NIOS2_EXCEPTION_CAUSE_NOT_PRESENT;
   801d8:	00bfffc4 	movi	r2,-1
   801dc:	e0bfff15 	stw	r2,-4(fp)
  badaddr = 0;
   801e0:	e03ffe15 	stw	zero,-8(fp)
#endif /* NIOS2_HAS_EXTRA_EXCEPTION_INFO */

  if(alt_instruction_exception_handler) {
   801e4:	d0a65517 	ldw	r2,-26284(gp)
   801e8:	10000726 	beq	r2,zero,80208 <alt_instruction_exception_entry+0x44>
     * Call handler. Its return value indicates whether the exception-causing
     * instruction should be re-issued. The code that called us,
     * alt_eceptions_entry.S, will look at this value and adjust the ea
     * register as necessary
     */
    return alt_instruction_exception_handler(cause, exception_pc, badaddr);
   801ec:	d0a65517 	ldw	r2,-26284(gp)
   801f0:	e0ffff17 	ldw	r3,-4(fp)
   801f4:	e1bffe17 	ldw	r6,-8(fp)
   801f8:	e17ffd17 	ldw	r5,-12(fp)
   801fc:	1809883a 	mov	r4,r3
   80200:	103ee83a 	callr	r2
   80204:	00000206 	br	80210 <alt_instruction_exception_entry+0x4c>
   *    (a peripheral which negates its interrupt output before its
   *    interrupt handler has been executed will cause spurious interrupts)
   */
  else {
#ifdef NIOS2_HAS_DEBUG_STUB
    NIOS2_BREAK();
   80208:	003da03a 	break	0
      ;
#endif /* NIOS2_HAS_DEBUG_STUB */
  }

  /* We should not get here. Remove compiler warning. */
  return NIOS2_EXCEPTION_RETURN_REISSUE_INST;
   8020c:	0005883a 	mov	r2,zero
}
   80210:	e037883a 	mov	sp,fp
   80214:	dfc00117 	ldw	ra,4(sp)
   80218:	df000017 	ldw	fp,0(sp)
   8021c:	dec00204 	addi	sp,sp,8
   80220:	f800283a 	ret

Disassembly of section .text:

00080224 <_start>:

    /*
     * Now that the caches are initialized, set up the stack pointer and global pointer.
     * The values provided by the linker are assumed to be correctly aligned.
     */
    movhi sp, %hi(__alt_stack_pointer)
   80224:	06c003b4 	movhi	sp,14
    ori sp, sp, %lo(__alt_stack_pointer)
   80228:	dec6a014 	ori	sp,sp,6784
    movhi gp, %hi(_gp)
   8022c:	068002b4 	movhi	gp,10
    ori gp, gp, %lo(_gp)
   80230:	d68e6814 	ori	gp,gp,14752
 */
#ifndef ALT_SIM_OPTIMIZE
    /* Log that the BSS is about to be cleared. */
    ALT_LOG_PUTS(alt_log_msg_bss)

    movhi r2, %hi(__bss_start)
   80234:	00800274 	movhi	r2,9
    ori r2, r2, %lo(__bss_start)
   80238:	10b4af14 	ori	r2,r2,53948

    movhi r3, %hi(__bss_end)
   8023c:	00c00274 	movhi	r3,9
    ori r3, r3, %lo(__bss_end)
   80240:	18f5ba14 	ori	r3,r3,55016

    beq r2, r3, 1f
   80244:	10c00326 	beq	r2,r3,80254 <_start+0x30>

0:
    stw zero, (r2)
   80248:	10000015 	stw	zero,0(r2)
    addi r2, r2, 4
   8024c:	10800104 	addi	r2,r2,4
    bltu r2, r3, 0b
   80250:	10fffd36 	bltu	r2,r3,80248 <_start+0x24>
     * section aren't defined until alt_load() has been called).
     */
    mov   et, zero
#endif

    call alt_load
   80254:	00975640 	call	97564 <alt_load>

    /* Log that alt_main is about to be called. */
    ALT_LOG_PUTS(alt_log_msg_alt_main)

    /* Call the C entry point. It should never return. */
    call alt_main
   80258:	00977040 	call	97704 <alt_main>

0008025c <alt_after_alt_main>:

    /* Wait in infinite loop in case alt_main does return. */
alt_after_alt_main:
    br alt_after_alt_main
   8025c:	003fff06 	br	8025c <alt_after_alt_main>

00080260 <calcula_max>:
#include "altera_avalon_pio_regs.h"

const alt_u32 frequencia_sistema = 50000000;
const alt_u16 OVERFLOW = 65535;

alt_u16 calcula_max(alt_u8 div10, alt_32 frequencia_pwm) {
   80260:	defffb04 	addi	sp,sp,-20
   80264:	dfc00415 	stw	ra,16(sp)
   80268:	df000315 	stw	fp,12(sp)
   8026c:	df000304 	addi	fp,sp,12
   80270:	2005883a 	mov	r2,r4
   80274:	e17ffd15 	stw	r5,-12(fp)
   80278:	e0bffe05 	stb	r2,-8(fp)
	alt_32 result = (frequencia_sistema / (frequencia_pwm * (1 << div10))) - 1;
   8027c:	0080bef4 	movhi	r2,763
   80280:	10bc2004 	addi	r2,r2,-3968
   80284:	e0fffe03 	ldbu	r3,-8(fp)
   80288:	e13ffd17 	ldw	r4,-12(fp)
   8028c:	20c6983a 	sll	r3,r4,r3
   80290:	180b883a 	mov	r5,r3
   80294:	1009883a 	mov	r4,r2
   80298:	00806c40 	call	806c4 <__udivsi3>
   8029c:	10bfffc4 	addi	r2,r2,-1
   802a0:	e0bfff15 	stw	r2,-4(fp)
    if(result>OVERFLOW){
   802a4:	00bfffc4 	movi	r2,-1
   802a8:	10ffffcc 	andi	r3,r2,65535
   802ac:	e0bfff17 	ldw	r2,-4(fp)
   802b0:	1880020e 	bge	r3,r2,802bc <calcula_max+0x5c>
        return 0;
   802b4:	0005883a 	mov	r2,zero
   802b8:	00000106 	br	802c0 <calcula_max+0x60>
    }
    return result;
   802bc:	e0bfff17 	ldw	r2,-4(fp)
}
   802c0:	e037883a 	mov	sp,fp
   802c4:	dfc00117 	ldw	ra,4(sp)
   802c8:	df000017 	ldw	fp,0(sp)
   802cc:	dec00204 	addi	sp,sp,8
   802d0:	f800283a 	ret

000802d4 <atualizaFrequenciaPWM>:

void atualizaFrequenciaPWM(alt_32 *reffrequencia_pwm, alt_u16 *refmax){
   802d4:	defffa04 	addi	sp,sp,-24
   802d8:	dfc00515 	stw	ra,20(sp)
   802dc:	df000415 	stw	fp,16(sp)
   802e0:	df000404 	addi	fp,sp,16
   802e4:	e13ffd15 	stw	r4,-12(fp)
   802e8:	e17ffc15 	stw	r5,-16(fp)
	alt_u8 i = 0;
   802ec:	e03fffc5 	stb	zero,-1(fp)
    alt_u16 maior = calcula_max(i,*reffrequencia_pwm);
   802f0:	e0ffffc3 	ldbu	r3,-1(fp)
   802f4:	e0bffd17 	ldw	r2,-12(fp)
   802f8:	10800017 	ldw	r2,0(r2)
   802fc:	100b883a 	mov	r5,r2
   80300:	1809883a 	mov	r4,r3
   80304:	00802600 	call	80260 <calcula_max>
   80308:	e0bfff0d 	sth	r2,-4(fp)
    alt_u8 index_maior = i;
   8030c:	e0bfffc3 	ldbu	r2,-1(fp)
   80310:	e0bffec5 	stb	r2,-5(fp)
    for(i=1;i<8;i++){
   80314:	00800044 	movi	r2,1
   80318:	e0bfffc5 	stb	r2,-1(fp)
   8031c:	00001106 	br	80364 <atualizaFrequenciaPWM+0x90>
    	alt_u16 valor_max = calcula_max(i,*reffrequencia_pwm);
   80320:	e0ffffc3 	ldbu	r3,-1(fp)
   80324:	e0bffd17 	ldw	r2,-12(fp)
   80328:	10800017 	ldw	r2,0(r2)
   8032c:	100b883a 	mov	r5,r2
   80330:	1809883a 	mov	r4,r3
   80334:	00802600 	call	80260 <calcula_max>
   80338:	e0bffe0d 	sth	r2,-8(fp)
         if(valor_max > maior){
   8033c:	e0bffe0b 	ldhu	r2,-8(fp)
   80340:	e0ffff0b 	ldhu	r3,-4(fp)
   80344:	1880042e 	bgeu	r3,r2,80358 <atualizaFrequenciaPWM+0x84>
             maior=valor_max;
   80348:	e0bffe0b 	ldhu	r2,-8(fp)
   8034c:	e0bfff0d 	sth	r2,-4(fp)
             index_maior = i;
   80350:	e0bfffc3 	ldbu	r2,-1(fp)
   80354:	e0bffec5 	stb	r2,-5(fp)
    for(i=1;i<8;i++){
   80358:	e0bfffc3 	ldbu	r2,-1(fp)
   8035c:	10800044 	addi	r2,r2,1
   80360:	e0bfffc5 	stb	r2,-1(fp)
   80364:	e0bfffc3 	ldbu	r2,-1(fp)
   80368:	10800230 	cmpltui	r2,r2,8
   8036c:	103fec1e 	bne	r2,zero,80320 <atualizaFrequenciaPWM+0x4c>
         }
    }
    *refmax=maior;
   80370:	e0bffc17 	ldw	r2,-16(fp)
   80374:	e0ffff0b 	ldhu	r3,-4(fp)
   80378:	10c0000d 	sth	r3,0(r2)
    printf("Escrevendo no PIO do Max: %d\n",*refmax);
   8037c:	e0bffc17 	ldw	r2,-16(fp)
   80380:	1080000b 	ldhu	r2,0(r2)
   80384:	10bfffcc 	andi	r2,r2,65535
   80388:	100b883a 	mov	r5,r2
   8038c:	010002b4 	movhi	r4,10
   80390:	2125d404 	addi	r4,r4,-26800
   80394:	00807b40 	call	807b4 <printf>
    IOWR_ALTERA_AVALON_PIO_DATA(PINO_MAX_BASE,*refmax);
   80398:	e0bffc17 	ldw	r2,-16(fp)
   8039c:	1080000b 	ldhu	r2,0(r2)
   803a0:	10ffffcc 	andi	r3,r2,65535
   803a4:	00800434 	movhi	r2,16
   803a8:	10c40c35 	stwio	r3,4144(r2)
    printf("Escrevendo no PIO do div10: %d\n\n",index_maior);
   803ac:	e0bffec3 	ldbu	r2,-5(fp)
   803b0:	100b883a 	mov	r5,r2
   803b4:	010002b4 	movhi	r4,10
   803b8:	2125dc04 	addi	r4,r4,-26768
   803bc:	00807b40 	call	807b4 <printf>
    IOWR_ALTERA_AVALON_PIO_DATA(PINO_DIV_BASE,index_maior);
   803c0:	e0fffec3 	ldbu	r3,-5(fp)
   803c4:	00800434 	movhi	r2,16
   803c8:	10c40835 	stwio	r3,4128(r2)
    return;
   803cc:	0001883a 	nop
}
   803d0:	e037883a 	mov	sp,fp
   803d4:	dfc00117 	ldw	ra,4(sp)
   803d8:	df000017 	ldw	fp,0(sp)
   803dc:	dec00204 	addi	sp,sp,8
   803e0:	f800283a 	ret

000803e4 <atualizaDutyCicle>:

void atualizaDutyCicle(alt_u16 *refDutyCicle,alt_u16 *refmax ){
   803e4:	defffc04 	addi	sp,sp,-16
   803e8:	dfc00315 	stw	ra,12(sp)
   803ec:	df000215 	stw	fp,8(sp)
   803f0:	df000204 	addi	fp,sp,8
   803f4:	e13fff15 	stw	r4,-4(fp)
   803f8:	e17ffe15 	stw	r5,-8(fp)
    if ( (*refDutyCicle) > (*refmax + 1) ){
   803fc:	e0bfff17 	ldw	r2,-4(fp)
   80400:	1080000b 	ldhu	r2,0(r2)
   80404:	10bfffcc 	andi	r2,r2,65535
   80408:	e0fffe17 	ldw	r3,-8(fp)
   8040c:	18c0000b 	ldhu	r3,0(r3)
   80410:	18ffffcc 	andi	r3,r3,65535
   80414:	18c00044 	addi	r3,r3,1
   80418:	1880060e 	bge	r3,r2,80434 <atualizaDutyCicle+0x50>
        *refDutyCicle=*refmax+1;
   8041c:	e0bffe17 	ldw	r2,-8(fp)
   80420:	1080000b 	ldhu	r2,0(r2)
   80424:	10800044 	addi	r2,r2,1
   80428:	1007883a 	mov	r3,r2
   8042c:	e0bfff17 	ldw	r2,-4(fp)
   80430:	10c0000d 	sth	r3,0(r2)
    }
    printf("\n\nEscrevendo no PIO do DutyCicle: %hu\n\n",*refDutyCicle);
   80434:	e0bfff17 	ldw	r2,-4(fp)
   80438:	1080000b 	ldhu	r2,0(r2)
   8043c:	10bfffcc 	andi	r2,r2,65535
   80440:	100b883a 	mov	r5,r2
   80444:	010002b4 	movhi	r4,10
   80448:	2125e504 	addi	r4,r4,-26732
   8044c:	00807b40 	call	807b4 <printf>
    IOWR_ALTERA_AVALON_PIO_DATA(PINO_D_BASE,*refDutyCicle);
   80450:	e0bfff17 	ldw	r2,-4(fp)
   80454:	1080000b 	ldhu	r2,0(r2)
   80458:	10ffffcc 	andi	r3,r2,65535
   8045c:	00800434 	movhi	r2,16
   80460:	10c41035 	stwio	r3,4160(r2)
    return;
   80464:	0001883a 	nop
}
   80468:	e037883a 	mov	sp,fp
   8046c:	dfc00117 	ldw	ra,4(sp)
   80470:	df000017 	ldw	fp,0(sp)
   80474:	dec00204 	addi	sp,sp,8
   80478:	f800283a 	ret

0008047c <main>:

int main()
{
   8047c:	defffb04 	addi	sp,sp,-20
   80480:	dfc00415 	stw	ra,16(sp)
   80484:	df000315 	stw	fp,12(sp)
   80488:	df000304 	addi	fp,sp,12

	alt_32 frequencia_pwm = 10000;
   8048c:	0089c404 	movi	r2,10000
   80490:	e0bfff15 	stw	r2,-4(fp)
	alt_u16 max,DutyCicle;
	DutyCicle=2000;
   80494:	0081f404 	movi	r2,2000
   80498:	e0bffe0d 	sth	r2,-8(fp)
	printf("Iniciando...\n\n"); // mudar para o contexto no NIOS2
   8049c:	010002b4 	movhi	r4,10
   804a0:	2125ef04 	addi	r4,r4,-26692
   804a4:	00808bc0 	call	808bc <puts>
	atualizaFrequenciaPWM(&frequencia_pwm,&max);
   804a8:	e0fffe84 	addi	r3,fp,-6
   804ac:	e0bfff04 	addi	r2,fp,-4
   804b0:	180b883a 	mov	r5,r3
   804b4:	1009883a 	mov	r4,r2
   804b8:	00802d40 	call	802d4 <atualizaFrequenciaPWM>
	atualizaDutyCicle(&DutyCicle,&max);
   804bc:	e0fffe84 	addi	r3,fp,-6
   804c0:	e0bffe04 	addi	r2,fp,-8
   804c4:	180b883a 	mov	r5,r3
   804c8:	1009883a 	mov	r4,r2
   804cc:	00803e40 	call	803e4 <atualizaDutyCicle>
	while(1) {
		printf("\n\nDigite a opcao desejada:\n"); // mudar para o contexto no NIOS2
   804d0:	010002b4 	movhi	r4,10
   804d4:	2125f304 	addi	r4,r4,-26676
   804d8:	00808bc0 	call	808bc <puts>
		printf("1 - Atualizar DutyCicle\n");// mudar para o contexto no NIOS2
   804dc:	010002b4 	movhi	r4,10
   804e0:	2125fa04 	addi	r4,r4,-26648
   804e4:	00808bc0 	call	808bc <puts>
		printf("2 - Atualizar Frequencia do PWM\n");// mudar para o contexto no NIOS2
   804e8:	010002b4 	movhi	r4,10
   804ec:	21260004 	addi	r4,r4,-26624
   804f0:	00808bc0 	call	808bc <puts>
		printf("opcao:");// mudar para o contexto no NIOS2
   804f4:	010002b4 	movhi	r4,10
   804f8:	21260804 	addi	r4,r4,-26592
   804fc:	00807b40 	call	807b4 <printf>
		alt_8 opcao;
		scanf(" %c",&opcao);// mudar para contexto do NIOS2
   80500:	e0bffdc4 	addi	r2,fp,-9
   80504:	100b883a 	mov	r5,r2
   80508:	010002b4 	movhi	r4,10
   8050c:	21260a04 	addi	r4,r4,-26584
   80510:	00808cc0 	call	808cc <scanf>
		if(opcao=='1') {
   80514:	e0bffdc3 	ldbu	r2,-9(fp)
   80518:	10803fcc 	andi	r2,r2,255
   8051c:	1080201c 	xori	r2,r2,128
   80520:	10bfe004 	addi	r2,r2,-128
   80524:	10800c58 	cmpnei	r2,r2,49
   80528:	1000121e 	bne	r2,zero,80574 <main+0xf8>
			printf("\ndigite o valor do DutyCicle - 0 até %hu\n valor:",max+1);// mudar para o contexto no NIOS2
   8052c:	e0bffe8b 	ldhu	r2,-6(fp)
   80530:	10bfffcc 	andi	r2,r2,65535
   80534:	10800044 	addi	r2,r2,1
   80538:	100b883a 	mov	r5,r2
   8053c:	010002b4 	movhi	r4,10
   80540:	21260b04 	addi	r4,r4,-26580
   80544:	00807b40 	call	807b4 <printf>
			scanf("%hd",&DutyCicle);// mudar para contexto do NIOS2
   80548:	e0bffe04 	addi	r2,fp,-8
   8054c:	100b883a 	mov	r5,r2
   80550:	010002b4 	movhi	r4,10
   80554:	21261804 	addi	r4,r4,-26528
   80558:	00808cc0 	call	808cc <scanf>
            atualizaDutyCicle(&DutyCicle,&max);
   8055c:	e0fffe84 	addi	r3,fp,-6
   80560:	e0bffe04 	addi	r2,fp,-8
   80564:	180b883a 	mov	r5,r3
   80568:	1009883a 	mov	r4,r2
   8056c:	00803e40 	call	803e4 <atualizaDutyCicle>
   80570:	003fd706 	br	804d0 <main+0x54>
		}else{
		    if(opcao=='2'){
   80574:	e0bffdc3 	ldbu	r2,-9(fp)
   80578:	10803fcc 	andi	r2,r2,255
   8057c:	1080201c 	xori	r2,r2,128
   80580:	10bfe004 	addi	r2,r2,-128
   80584:	10800c98 	cmpnei	r2,r2,50
   80588:	103fd11e 	bne	r2,zero,804d0 <main+0x54>
		        printf("\ndigite o valor da Frequencia PWM (em hz) - Valor maximo de %d Hz\nvalor:",frequencia_sistema);// mudar para o contexto no NIOS2
   8058c:	0080bef4 	movhi	r2,763
   80590:	10bc2004 	addi	r2,r2,-3968
   80594:	100b883a 	mov	r5,r2
   80598:	010002b4 	movhi	r4,10
   8059c:	21261904 	addi	r4,r4,-26524
   805a0:	00807b40 	call	807b4 <printf>
			    scanf("%d",&frequencia_pwm);// mudar para contexto do NIOS2
   805a4:	e0bfff04 	addi	r2,fp,-4
   805a8:	100b883a 	mov	r5,r2
   805ac:	010002b4 	movhi	r4,10
   805b0:	21262c04 	addi	r4,r4,-26448
   805b4:	00808cc0 	call	808cc <scanf>
			    atualizaFrequenciaPWM(&frequencia_pwm,&max);
   805b8:	e0fffe84 	addi	r3,fp,-6
   805bc:	e0bfff04 	addi	r2,fp,-4
   805c0:	180b883a 	mov	r5,r3
   805c4:	1009883a 	mov	r4,r2
   805c8:	00802d40 	call	802d4 <atualizaFrequenciaPWM>
	while(1) {
   805cc:	003fc006 	br	804d0 <main+0x54>

000805d0 <__divsi3>:
   805d0:	20001a16 	blt	r4,zero,8063c <__divsi3+0x6c>
   805d4:	000f883a 	mov	r7,zero
   805d8:	2800020e 	bge	r5,zero,805e4 <__divsi3+0x14>
   805dc:	014bc83a 	sub	r5,zero,r5
   805e0:	39c0005c 	xori	r7,r7,1
   805e4:	200d883a 	mov	r6,r4
   805e8:	00c00044 	movi	r3,1
   805ec:	2900092e 	bgeu	r5,r4,80614 <__divsi3+0x44>
   805f0:	00800804 	movi	r2,32
   805f4:	00c00044 	movi	r3,1
   805f8:	00000106 	br	80600 <__divsi3+0x30>
   805fc:	10001226 	beq	r2,zero,80648 <__divsi3+0x78>
   80600:	294b883a 	add	r5,r5,r5
   80604:	10bfffc4 	addi	r2,r2,-1
   80608:	18c7883a 	add	r3,r3,r3
   8060c:	293ffb36 	bltu	r5,r4,805fc <__divsi3+0x2c>
   80610:	18000d26 	beq	r3,zero,80648 <__divsi3+0x78>
   80614:	0005883a 	mov	r2,zero
   80618:	31400236 	bltu	r6,r5,80624 <__divsi3+0x54>
   8061c:	314dc83a 	sub	r6,r6,r5
   80620:	10c4b03a 	or	r2,r2,r3
   80624:	1806d07a 	srli	r3,r3,1
   80628:	280ad07a 	srli	r5,r5,1
   8062c:	183ffa1e 	bne	r3,zero,80618 <__divsi3+0x48>
   80630:	38000126 	beq	r7,zero,80638 <__divsi3+0x68>
   80634:	0085c83a 	sub	r2,zero,r2
   80638:	f800283a 	ret
   8063c:	0109c83a 	sub	r4,zero,r4
   80640:	01c00044 	movi	r7,1
   80644:	003fe406 	br	805d8 <__divsi3+0x8>
   80648:	0005883a 	mov	r2,zero
   8064c:	003ff806 	br	80630 <__divsi3+0x60>

00080650 <__modsi3>:
   80650:	20001716 	blt	r4,zero,806b0 <__modsi3+0x60>
   80654:	000f883a 	mov	r7,zero
   80658:	2005883a 	mov	r2,r4
   8065c:	2800010e 	bge	r5,zero,80664 <__modsi3+0x14>
   80660:	014bc83a 	sub	r5,zero,r5
   80664:	00c00044 	movi	r3,1
   80668:	2900092e 	bgeu	r5,r4,80690 <__modsi3+0x40>
   8066c:	01800804 	movi	r6,32
   80670:	00c00044 	movi	r3,1
   80674:	00000106 	br	8067c <__modsi3+0x2c>
   80678:	30001026 	beq	r6,zero,806bc <__modsi3+0x6c>
   8067c:	294b883a 	add	r5,r5,r5
   80680:	31bfffc4 	addi	r6,r6,-1
   80684:	18c7883a 	add	r3,r3,r3
   80688:	293ffb36 	bltu	r5,r4,80678 <__modsi3+0x28>
   8068c:	18000b26 	beq	r3,zero,806bc <__modsi3+0x6c>
   80690:	1806d07a 	srli	r3,r3,1
   80694:	11400136 	bltu	r2,r5,8069c <__modsi3+0x4c>
   80698:	1145c83a 	sub	r2,r2,r5
   8069c:	280ad07a 	srli	r5,r5,1
   806a0:	183ffb1e 	bne	r3,zero,80690 <__modsi3+0x40>
   806a4:	38000126 	beq	r7,zero,806ac <__modsi3+0x5c>
   806a8:	0085c83a 	sub	r2,zero,r2
   806ac:	f800283a 	ret
   806b0:	0109c83a 	sub	r4,zero,r4
   806b4:	01c00044 	movi	r7,1
   806b8:	003fe706 	br	80658 <__modsi3+0x8>
   806bc:	2005883a 	mov	r2,r4
   806c0:	003ff806 	br	806a4 <__modsi3+0x54>

000806c4 <__udivsi3>:
   806c4:	200d883a 	mov	r6,r4
   806c8:	2900152e 	bgeu	r5,r4,80720 <__udivsi3+0x5c>
   806cc:	28001416 	blt	r5,zero,80720 <__udivsi3+0x5c>
   806d0:	00800804 	movi	r2,32
   806d4:	00c00044 	movi	r3,1
   806d8:	00000206 	br	806e4 <__udivsi3+0x20>
   806dc:	10000e26 	beq	r2,zero,80718 <__udivsi3+0x54>
   806e0:	28000416 	blt	r5,zero,806f4 <__udivsi3+0x30>
   806e4:	294b883a 	add	r5,r5,r5
   806e8:	10bfffc4 	addi	r2,r2,-1
   806ec:	18c7883a 	add	r3,r3,r3
   806f0:	293ffa36 	bltu	r5,r4,806dc <__udivsi3+0x18>
   806f4:	18000826 	beq	r3,zero,80718 <__udivsi3+0x54>
   806f8:	0005883a 	mov	r2,zero
   806fc:	31400236 	bltu	r6,r5,80708 <__udivsi3+0x44>
   80700:	314dc83a 	sub	r6,r6,r5
   80704:	10c4b03a 	or	r2,r2,r3
   80708:	1806d07a 	srli	r3,r3,1
   8070c:	280ad07a 	srli	r5,r5,1
   80710:	183ffa1e 	bne	r3,zero,806fc <__udivsi3+0x38>
   80714:	f800283a 	ret
   80718:	0005883a 	mov	r2,zero
   8071c:	f800283a 	ret
   80720:	00c00044 	movi	r3,1
   80724:	003ff406 	br	806f8 <__udivsi3+0x34>

00080728 <__umodsi3>:
   80728:	2005883a 	mov	r2,r4
   8072c:	2900132e 	bgeu	r5,r4,8077c <__umodsi3+0x54>
   80730:	28001216 	blt	r5,zero,8077c <__umodsi3+0x54>
   80734:	01800804 	movi	r6,32
   80738:	00c00044 	movi	r3,1
   8073c:	00000206 	br	80748 <__umodsi3+0x20>
   80740:	30000c26 	beq	r6,zero,80774 <__umodsi3+0x4c>
   80744:	28000416 	blt	r5,zero,80758 <__umodsi3+0x30>
   80748:	294b883a 	add	r5,r5,r5
   8074c:	31bfffc4 	addi	r6,r6,-1
   80750:	18c7883a 	add	r3,r3,r3
   80754:	293ffa36 	bltu	r5,r4,80740 <__umodsi3+0x18>
   80758:	18000626 	beq	r3,zero,80774 <__umodsi3+0x4c>
   8075c:	1806d07a 	srli	r3,r3,1
   80760:	11400136 	bltu	r2,r5,80768 <__umodsi3+0x40>
   80764:	1145c83a 	sub	r2,r2,r5
   80768:	280ad07a 	srli	r5,r5,1
   8076c:	183ffb1e 	bne	r3,zero,8075c <__umodsi3+0x34>
   80770:	f800283a 	ret
   80774:	2005883a 	mov	r2,r4
   80778:	f800283a 	ret
   8077c:	00c00044 	movi	r3,1
   80780:	003ff606 	br	8075c <__umodsi3+0x34>

00080784 <_printf_r>:
   80784:	defffd04 	addi	sp,sp,-12
   80788:	2805883a 	mov	r2,r5
   8078c:	dfc00015 	stw	ra,0(sp)
   80790:	d9800115 	stw	r6,4(sp)
   80794:	d9c00215 	stw	r7,8(sp)
   80798:	21400217 	ldw	r5,8(r4)
   8079c:	d9c00104 	addi	r7,sp,4
   807a0:	100d883a 	mov	r6,r2
   807a4:	00809d00 	call	809d0 <___vfprintf_internal_r>
   807a8:	dfc00017 	ldw	ra,0(sp)
   807ac:	dec00304 	addi	sp,sp,12
   807b0:	f800283a 	ret

000807b4 <printf>:
   807b4:	defffc04 	addi	sp,sp,-16
   807b8:	dfc00015 	stw	ra,0(sp)
   807bc:	d9400115 	stw	r5,4(sp)
   807c0:	d9800215 	stw	r6,8(sp)
   807c4:	d9c00315 	stw	r7,12(sp)
   807c8:	008002b4 	movhi	r2,10
   807cc:	10ae6a17 	ldw	r2,-18008(r2)
   807d0:	200b883a 	mov	r5,r4
   807d4:	d9800104 	addi	r6,sp,4
   807d8:	11000217 	ldw	r4,8(r2)
   807dc:	0082d540 	call	82d54 <__vfprintf_internal>
   807e0:	dfc00017 	ldw	ra,0(sp)
   807e4:	dec00404 	addi	sp,sp,16
   807e8:	f800283a 	ret

000807ec <_puts_r>:
   807ec:	defff504 	addi	sp,sp,-44
   807f0:	dc000815 	stw	r16,32(sp)
   807f4:	2021883a 	mov	r16,r4
   807f8:	2809883a 	mov	r4,r5
   807fc:	dc400915 	stw	r17,36(sp)
   80800:	dfc00a15 	stw	ra,40(sp)
   80804:	2823883a 	mov	r17,r5
   80808:	00809380 	call	80938 <strlen>
   8080c:	11000044 	addi	r4,r2,1
   80810:	d8800515 	stw	r2,20(sp)
   80814:	00800044 	movi	r2,1
   80818:	00c002b4 	movhi	r3,10
   8081c:	d8800715 	stw	r2,28(sp)
   80820:	d8800404 	addi	r2,sp,16
   80824:	18e62d04 	addi	r3,r3,-26444
   80828:	d8800115 	stw	r2,4(sp)
   8082c:	00800084 	movi	r2,2
   80830:	dc400415 	stw	r17,16(sp)
   80834:	d8c00615 	stw	r3,24(sp)
   80838:	d9000315 	stw	r4,12(sp)
   8083c:	d8800215 	stw	r2,8(sp)
   80840:	81400217 	ldw	r5,8(r16)
   80844:	80000226 	beq	r16,zero,80850 <_puts_r+0x64>
   80848:	80800d17 	ldw	r2,52(r16)
   8084c:	10001426 	beq	r2,zero,808a0 <_puts_r+0xb4>
   80850:	2880030b 	ldhu	r2,12(r5)
   80854:	10c8000c 	andi	r3,r2,8192
   80858:	1800061e 	bne	r3,zero,80874 <_puts_r+0x88>
   8085c:	28c01917 	ldw	r3,100(r5)
   80860:	0137ffc4 	movi	r4,-8193
   80864:	10880014 	ori	r2,r2,8192
   80868:	1906703a 	and	r3,r3,r4
   8086c:	2880030d 	sth	r2,12(r5)
   80870:	28c01915 	stw	r3,100(r5)
   80874:	d9800104 	addi	r6,sp,4
   80878:	8009883a 	mov	r4,r16
   8087c:	00866e80 	call	866e8 <__sfvwrite_r>
   80880:	1007883a 	mov	r3,r2
   80884:	00800284 	movi	r2,10
   80888:	18000a1e 	bne	r3,zero,808b4 <_puts_r+0xc8>
   8088c:	dfc00a17 	ldw	ra,40(sp)
   80890:	dc400917 	ldw	r17,36(sp)
   80894:	dc000817 	ldw	r16,32(sp)
   80898:	dec00b04 	addi	sp,sp,44
   8089c:	f800283a 	ret
   808a0:	8009883a 	mov	r4,r16
   808a4:	d9400015 	stw	r5,0(sp)
   808a8:	00864140 	call	86414 <__sinit>
   808ac:	d9400017 	ldw	r5,0(sp)
   808b0:	003fe706 	br	80850 <_puts_r+0x64>
   808b4:	00bfffc4 	movi	r2,-1
   808b8:	003ff406 	br	8088c <_puts_r+0xa0>

000808bc <puts>:
   808bc:	008002b4 	movhi	r2,10
   808c0:	200b883a 	mov	r5,r4
   808c4:	112e6a17 	ldw	r4,-18008(r2)
   808c8:	00807ec1 	jmpi	807ec <_puts_r>

000808cc <scanf>:
   808cc:	defffc04 	addi	sp,sp,-16
   808d0:	2005883a 	mov	r2,r4
   808d4:	dfc00015 	stw	ra,0(sp)
   808d8:	d9400115 	stw	r5,4(sp)
   808dc:	d9800215 	stw	r6,8(sp)
   808e0:	d9c00315 	stw	r7,12(sp)
   808e4:	00c002b4 	movhi	r3,10
   808e8:	192e6a17 	ldw	r4,-18008(r3)
   808ec:	d9c00104 	addi	r7,sp,4
   808f0:	100d883a 	mov	r6,r2
   808f4:	21400117 	ldw	r5,4(r4)
   808f8:	0085da40 	call	85da4 <_vfscanf_r>
   808fc:	dfc00017 	ldw	ra,0(sp)
   80900:	dec00404 	addi	sp,sp,16
   80904:	f800283a 	ret

00080908 <_scanf_r>:
   80908:	defffd04 	addi	sp,sp,-12
   8090c:	2805883a 	mov	r2,r5
   80910:	dfc00015 	stw	ra,0(sp)
   80914:	d9800115 	stw	r6,4(sp)
   80918:	d9c00215 	stw	r7,8(sp)
   8091c:	21400117 	ldw	r5,4(r4)
   80920:	d9c00104 	addi	r7,sp,4
   80924:	100d883a 	mov	r6,r2
   80928:	0085da40 	call	85da4 <_vfscanf_r>
   8092c:	dfc00017 	ldw	ra,0(sp)
   80930:	dec00304 	addi	sp,sp,12
   80934:	f800283a 	ret

00080938 <strlen>:
   80938:	208000cc 	andi	r2,r4,3
   8093c:	10000926 	beq	r2,zero,80964 <strlen+0x2c>
   80940:	2005883a 	mov	r2,r4
   80944:	00000306 	br	80954 <strlen+0x1c>
   80948:	10800044 	addi	r2,r2,1
   8094c:	10c000cc 	andi	r3,r2,3
   80950:	18000526 	beq	r3,zero,80968 <strlen+0x30>
   80954:	10c00007 	ldb	r3,0(r2)
   80958:	183ffb1e 	bne	r3,zero,80948 <strlen+0x10>
   8095c:	1105c83a 	sub	r2,r2,r4
   80960:	f800283a 	ret
   80964:	2005883a 	mov	r2,r4
   80968:	11400017 	ldw	r5,0(r2)
   8096c:	01ffbff4 	movhi	r7,65279
   80970:	39ffbfc4 	addi	r7,r7,-257
   80974:	29c7883a 	add	r3,r5,r7
   80978:	01a02074 	movhi	r6,32897
   8097c:	014a303a 	nor	r5,zero,r5
   80980:	1946703a 	and	r3,r3,r5
   80984:	31a02004 	addi	r6,r6,-32640
   80988:	1986703a 	and	r3,r3,r6
   8098c:	1800071e 	bne	r3,zero,809ac <strlen+0x74>
   80990:	11400117 	ldw	r5,4(r2)
   80994:	10800104 	addi	r2,r2,4
   80998:	29c7883a 	add	r3,r5,r7
   8099c:	014a303a 	nor	r5,zero,r5
   809a0:	1946703a 	and	r3,r3,r5
   809a4:	1986703a 	and	r3,r3,r6
   809a8:	183ff926 	beq	r3,zero,80990 <strlen+0x58>
   809ac:	10c00007 	ldb	r3,0(r2)
   809b0:	183fea26 	beq	r3,zero,8095c <strlen+0x24>
   809b4:	10c00047 	ldb	r3,1(r2)
   809b8:	10800044 	addi	r2,r2,1
   809bc:	183fe726 	beq	r3,zero,8095c <strlen+0x24>
   809c0:	10c00047 	ldb	r3,1(r2)
   809c4:	10800044 	addi	r2,r2,1
   809c8:	183ffa1e 	bne	r3,zero,809b4 <strlen+0x7c>
   809cc:	003fe306 	br	8095c <strlen+0x24>

000809d0 <___vfprintf_internal_r>:
   809d0:	deffbd04 	addi	sp,sp,-268
   809d4:	dfc04215 	stw	ra,264(sp)
   809d8:	dcc03c15 	stw	r19,240(sp)
   809dc:	dc003915 	stw	r16,228(sp)
   809e0:	d9000515 	stw	r4,20(sp)
   809e4:	2021883a 	mov	r16,r4
   809e8:	d9400415 	stw	r5,16(sp)
   809ec:	3027883a 	mov	r19,r6
   809f0:	d9c00715 	stw	r7,28(sp)
   809f4:	df004115 	stw	fp,260(sp)
   809f8:	ddc04015 	stw	r23,256(sp)
   809fc:	dd803f15 	stw	r22,252(sp)
   80a00:	dd403e15 	stw	r21,248(sp)
   80a04:	dd003d15 	stw	r20,244(sp)
   80a08:	dc803b15 	stw	r18,236(sp)
   80a0c:	dc403a15 	stw	r17,232(sp)
   80a10:	0087bf40 	call	87bf4 <_localeconv_r>
   80a14:	10800017 	ldw	r2,0(r2)
   80a18:	1009883a 	mov	r4,r2
   80a1c:	d8800d15 	stw	r2,52(sp)
   80a20:	00809380 	call	80938 <strlen>
   80a24:	d8800c15 	stw	r2,48(sp)
   80a28:	80000226 	beq	r16,zero,80a34 <___vfprintf_internal_r+0x64>
   80a2c:	80800d17 	ldw	r2,52(r16)
   80a30:	1006a226 	beq	r2,zero,824bc <___vfprintf_internal_r+0x1aec>
   80a34:	d9400417 	ldw	r5,16(sp)
   80a38:	2880030b 	ldhu	r2,12(r5)
   80a3c:	10c8000c 	andi	r3,r2,8192
   80a40:	1800071e 	bne	r3,zero,80a60 <___vfprintf_internal_r+0x90>
   80a44:	28c01917 	ldw	r3,100(r5)
   80a48:	11080014 	ori	r4,r2,8192
   80a4c:	00b7ffc4 	movi	r2,-8193
   80a50:	1886703a 	and	r3,r3,r2
   80a54:	2900030d 	sth	r4,12(r5)
   80a58:	2005883a 	mov	r2,r4
   80a5c:	28c01915 	stw	r3,100(r5)
   80a60:	10c0020c 	andi	r3,r2,8
   80a64:	1800f626 	beq	r3,zero,80e40 <___vfprintf_internal_r+0x470>
   80a68:	d8c00417 	ldw	r3,16(sp)
   80a6c:	18c00417 	ldw	r3,16(r3)
   80a70:	1800f326 	beq	r3,zero,80e40 <___vfprintf_internal_r+0x470>
   80a74:	1080068c 	andi	r2,r2,26
   80a78:	10800298 	cmpnei	r2,r2,10
   80a7c:	1000f926 	beq	r2,zero,80e64 <___vfprintf_internal_r+0x494>
   80a80:	dc802904 	addi	r18,sp,164
   80a84:	050002b4 	movhi	r20,10
   80a88:	dc801c15 	stw	r18,112(sp)
   80a8c:	d8001e15 	stw	zero,120(sp)
   80a90:	d8001d15 	stw	zero,116(sp)
   80a94:	d8000915 	stw	zero,36(sp)
   80a98:	d8000a15 	stw	zero,40(sp)
   80a9c:	d8000b15 	stw	zero,44(sp)
   80aa0:	9021883a 	mov	r16,r18
   80aa4:	d8000e15 	stw	zero,56(sp)
   80aa8:	d8001115 	stw	zero,68(sp)
   80aac:	d8000615 	stw	zero,24(sp)
   80ab0:	a5263f04 	addi	r20,r20,-26372
   80ab4:	98800007 	ldb	r2,0(r19)
   80ab8:	1000ce26 	beq	r2,zero,80df4 <___vfprintf_internal_r+0x424>
   80abc:	9823883a 	mov	r17,r19
   80ac0:	00000306 	br	80ad0 <___vfprintf_internal_r+0x100>
   80ac4:	88800047 	ldb	r2,1(r17)
   80ac8:	8c400044 	addi	r17,r17,1
   80acc:	10015226 	beq	r2,zero,81018 <___vfprintf_internal_r+0x648>
   80ad0:	10800958 	cmpnei	r2,r2,37
   80ad4:	103ffb1e 	bne	r2,zero,80ac4 <___vfprintf_internal_r+0xf4>
   80ad8:	8cebc83a 	sub	r21,r17,r19
   80adc:	8cc1501e 	bne	r17,r19,81020 <___vfprintf_internal_r+0x650>
   80ae0:	88800003 	ldbu	r2,0(r17)
   80ae4:	10803fcc 	andi	r2,r2,255
   80ae8:	1080201c 	xori	r2,r2,128
   80aec:	10bfe004 	addi	r2,r2,-128
   80af0:	1000c026 	beq	r2,zero,80df4 <___vfprintf_internal_r+0x424>
   80af4:	8a400047 	ldb	r9,1(r17)
   80af8:	8cc00044 	addi	r19,r17,1
   80afc:	d8001545 	stb	zero,85(sp)
   80b00:	057fffc4 	movi	r21,-1
   80b04:	0011883a 	mov	r8,zero
   80b08:	0019883a 	mov	r12,zero
   80b0c:	9cc00044 	addi	r19,r19,1
   80b10:	48bff804 	addi	r2,r9,-32
   80b14:	10c01668 	cmpgeui	r3,r2,89
   80b18:	18006c1e 	bne	r3,zero,80ccc <___vfprintf_internal_r+0x2fc>
   80b1c:	100490ba 	slli	r2,r2,2
   80b20:	00c00234 	movhi	r3,8
   80b24:	10c7883a 	add	r3,r2,r3
   80b28:	1882cc17 	ldw	r2,2864(r3)
   80b2c:	1000683a 	jmp	r2
   80b30:	000813e4 	muli	zero,zero,8271
   80b34:	00080ccc 	andi	zero,zero,8243
   80b38:	00080ccc 	andi	zero,zero,8243
   80b3c:	000813d8 	cmpnei	zero,zero,8271
   80b40:	00080ccc 	andi	zero,zero,8243
   80b44:	00080ccc 	andi	zero,zero,8243
   80b48:	00080ccc 	andi	zero,zero,8243
   80b4c:	00080ccc 	andi	zero,zero,8243
   80b50:	00080ccc 	andi	zero,zero,8243
   80b54:	00080ccc 	andi	zero,zero,8243
   80b58:	0008134c 	andi	zero,zero,8269
   80b5c:	000813c8 	cmpgei	zero,zero,8271
   80b60:	00080ccc 	andi	zero,zero,8243
   80b64:	00081364 	muli	zero,zero,8269
   80b68:	00081370 	cmpltui	zero,zero,8269
   80b6c:	00080ccc 	andi	zero,zero,8243
   80b70:	000813bc 	xorhi	zero,zero,8270
   80b74:	00080c94 	movui	zero,8242
   80b78:	00080c94 	movui	zero,8242
   80b7c:	00080c94 	movui	zero,8242
   80b80:	00080c94 	movui	zero,8242
   80b84:	00080c94 	movui	zero,8242
   80b88:	00080c94 	movui	zero,8242
   80b8c:	00080c94 	movui	zero,8242
   80b90:	00080c94 	movui	zero,8242
   80b94:	00080c94 	movui	zero,8242
   80b98:	00080ccc 	andi	zero,zero,8243
   80b9c:	00080ccc 	andi	zero,zero,8243
   80ba0:	00080ccc 	andi	zero,zero,8243
   80ba4:	00080ccc 	andi	zero,zero,8243
   80ba8:	00080ccc 	andi	zero,zero,8243
   80bac:	00080ccc 	andi	zero,zero,8243
   80bb0:	00080ccc 	andi	zero,zero,8243
   80bb4:	00080ccc 	andi	zero,zero,8243
   80bb8:	00080ccc 	andi	zero,zero,8243
   80bbc:	00080ccc 	andi	zero,zero,8243
   80bc0:	00080eb0 	cmpltui	zero,zero,8250
   80bc4:	0008116c 	andhi	zero,zero,8261
   80bc8:	00080ccc 	andi	zero,zero,8243
   80bcc:	0008116c 	andhi	zero,zero,8261
   80bd0:	00080ccc 	andi	zero,zero,8243
   80bd4:	00080ccc 	andi	zero,zero,8243
   80bd8:	00080ccc 	andi	zero,zero,8243
   80bdc:	00080ccc 	andi	zero,zero,8243
   80be0:	00081430 	cmpltui	zero,zero,8272
   80be4:	00080ccc 	andi	zero,zero,8243
   80be8:	00080ccc 	andi	zero,zero,8243
   80bec:	00080f18 	cmpnei	zero,zero,8252
   80bf0:	00080ccc 	andi	zero,zero,8243
   80bf4:	00080ccc 	andi	zero,zero,8243
   80bf8:	00080ccc 	andi	zero,zero,8243
   80bfc:	00080ccc 	andi	zero,zero,8243
   80c00:	00080ccc 	andi	zero,zero,8243
   80c04:	00080f40 	call	80f4 <__reset-0x77f0c>
   80c08:	00080ccc 	andi	zero,zero,8243
   80c0c:	00080ccc 	andi	zero,zero,8243
   80c10:	00081f4c 	andi	zero,zero,8317
   80c14:	00080ccc 	andi	zero,zero,8243
   80c18:	00080ccc 	andi	zero,zero,8243
   80c1c:	00080ccc 	andi	zero,zero,8243
   80c20:	00080ccc 	andi	zero,zero,8243
   80c24:	00080ccc 	andi	zero,zero,8243
   80c28:	00080ccc 	andi	zero,zero,8243
   80c2c:	00080ccc 	andi	zero,zero,8243
   80c30:	00080ccc 	andi	zero,zero,8243
   80c34:	00080ccc 	andi	zero,zero,8243
   80c38:	00080ccc 	andi	zero,zero,8243
   80c3c:	00081448 	cmpgei	zero,zero,8273
   80c40:	00080eb4 	movhi	zero,8250
   80c44:	0008116c 	andhi	zero,zero,8261
   80c48:	0008116c 	andhi	zero,zero,8261
   80c4c:	0008116c 	andhi	zero,zero,8261
   80c50:	0008143c 	xorhi	zero,zero,8272
   80c54:	00080eb4 	movhi	zero,8250
   80c58:	00080ccc 	andi	zero,zero,8243
   80c5c:	00080ccc 	andi	zero,zero,8243
   80c60:	00081408 	cmpgei	zero,zero,8272
   80c64:	00080ccc 	andi	zero,zero,8243
   80c68:	00081520 	cmpeqi	zero,zero,8276
   80c6c:	00080f1c 	xori	zero,zero,8252
   80c70:	000814e8 	cmpgeui	zero,zero,8275
   80c74:	000814dc 	xori	zero,zero,8275
   80c78:	00080ccc 	andi	zero,zero,8243
   80c7c:	00081470 	cmpltui	zero,zero,8273
   80c80:	00080ccc 	andi	zero,zero,8243
   80c84:	00080f44 	movi	zero,8253
   80c88:	00080ccc 	andi	zero,zero,8243
   80c8c:	00080ccc 	andi	zero,zero,8243
   80c90:	00081f9c 	xori	zero,zero,8318
   80c94:	0011883a 	mov	r8,zero
   80c98:	48fff404 	addi	r3,r9,-48
   80c9c:	400490ba 	slli	r2,r8,2
   80ca0:	9a400007 	ldb	r9,0(r19)
   80ca4:	9cc00044 	addi	r19,r19,1
   80ca8:	1211883a 	add	r8,r2,r8
   80cac:	4211883a 	add	r8,r8,r8
   80cb0:	1a11883a 	add	r8,r3,r8
   80cb4:	48fff404 	addi	r3,r9,-48
   80cb8:	188002b0 	cmpltui	r2,r3,10
   80cbc:	103ff71e 	bne	r2,zero,80c9c <___vfprintf_internal_r+0x2cc>
   80cc0:	48bff804 	addi	r2,r9,-32
   80cc4:	10c01668 	cmpgeui	r3,r2,89
   80cc8:	183f9426 	beq	r3,zero,80b1c <___vfprintf_internal_r+0x14c>
   80ccc:	48004926 	beq	r9,zero,80df4 <___vfprintf_internal_r+0x424>
   80cd0:	da401f05 	stb	r9,124(sp)
   80cd4:	d8001545 	stb	zero,85(sp)
   80cd8:	02c00044 	movi	r11,1
   80cdc:	07000044 	movi	fp,1
   80ce0:	dd801f04 	addi	r22,sp,124
   80ce4:	602f883a 	mov	r23,r12
   80ce8:	002b883a 	mov	r21,zero
   80cec:	d8000815 	stw	zero,32(sp)
   80cf0:	bb80008c 	andi	r14,r23,2
   80cf4:	70000126 	beq	r14,zero,80cfc <___vfprintf_internal_r+0x32c>
   80cf8:	5ac00084 	addi	r11,r11,2
   80cfc:	bb40210c 	andi	r13,r23,132
   80d00:	dc401e17 	ldw	r17,120(sp)
   80d04:	6800021e 	bne	r13,zero,80d10 <___vfprintf_internal_r+0x340>
   80d08:	42c7c83a 	sub	r3,r8,r11
   80d0c:	00c32a16 	blt	zero,r3,819b8 <___vfprintf_internal_r+0xfe8>
   80d10:	d8801547 	ldb	r2,85(sp)
   80d14:	10000c26 	beq	r2,zero,80d48 <___vfprintf_internal_r+0x378>
   80d18:	d8801d17 	ldw	r2,116(sp)
   80d1c:	d8c01544 	addi	r3,sp,85
   80d20:	8c400044 	addi	r17,r17,1
   80d24:	10800044 	addi	r2,r2,1
   80d28:	80c00015 	stw	r3,0(r16)
   80d2c:	00c00044 	movi	r3,1
   80d30:	d8801d15 	stw	r2,116(sp)
   80d34:	80c00115 	stw	r3,4(r16)
   80d38:	dc401e15 	stw	r17,120(sp)
   80d3c:	10800208 	cmpgei	r2,r2,8
   80d40:	1003741e 	bne	r2,zero,81b14 <___vfprintf_internal_r+0x1144>
   80d44:	84000204 	addi	r16,r16,8
   80d48:	70000c26 	beq	r14,zero,80d7c <___vfprintf_internal_r+0x3ac>
   80d4c:	d8801d17 	ldw	r2,116(sp)
   80d50:	d8c01584 	addi	r3,sp,86
   80d54:	8c400084 	addi	r17,r17,2
   80d58:	10800044 	addi	r2,r2,1
   80d5c:	80c00015 	stw	r3,0(r16)
   80d60:	00c00084 	movi	r3,2
   80d64:	d8801d15 	stw	r2,116(sp)
   80d68:	80c00115 	stw	r3,4(r16)
   80d6c:	dc401e15 	stw	r17,120(sp)
   80d70:	10800208 	cmpgei	r2,r2,8
   80d74:	1003791e 	bne	r2,zero,81b5c <___vfprintf_internal_r+0x118c>
   80d78:	84000204 	addi	r16,r16,8
   80d7c:	6b402018 	cmpnei	r13,r13,128
   80d80:	68024226 	beq	r13,zero,8168c <___vfprintf_internal_r+0xcbc>
   80d84:	af2bc83a 	sub	r21,r21,fp
   80d88:	05427a16 	blt	zero,r21,81774 <___vfprintf_internal_r+0xda4>
   80d8c:	b880400c 	andi	r2,r23,256
   80d90:	1001ef1e 	bne	r2,zero,81550 <___vfprintf_internal_r+0xb80>
   80d94:	d8801d17 	ldw	r2,116(sp)
   80d98:	8f23883a 	add	r17,r17,fp
   80d9c:	85800015 	stw	r22,0(r16)
   80da0:	10800044 	addi	r2,r2,1
   80da4:	d8801d15 	stw	r2,116(sp)
   80da8:	87000115 	stw	fp,4(r16)
   80dac:	dc401e15 	stw	r17,120(sp)
   80db0:	10800208 	cmpgei	r2,r2,8
   80db4:	10034b1e 	bne	r2,zero,81ae4 <___vfprintf_internal_r+0x1114>
   80db8:	84000204 	addi	r16,r16,8
   80dbc:	ba80010c 	andi	r10,r23,4
   80dc0:	50000226 	beq	r10,zero,80dcc <___vfprintf_internal_r+0x3fc>
   80dc4:	42ebc83a 	sub	r21,r8,r11
   80dc8:	0540ac16 	blt	zero,r21,8107c <___vfprintf_internal_r+0x6ac>
   80dcc:	42c0010e 	bge	r8,r11,80dd4 <___vfprintf_internal_r+0x404>
   80dd0:	5811883a 	mov	r8,r11
   80dd4:	d8800617 	ldw	r2,24(sp)
   80dd8:	1205883a 	add	r2,r2,r8
   80ddc:	d8800615 	stw	r2,24(sp)
   80de0:	8802b41e 	bne	r17,zero,818b4 <___vfprintf_internal_r+0xee4>
   80de4:	98800007 	ldb	r2,0(r19)
   80de8:	d8001d15 	stw	zero,116(sp)
   80dec:	9021883a 	mov	r16,r18
   80df0:	103f321e 	bne	r2,zero,80abc <___vfprintf_internal_r+0xec>
   80df4:	d8801e17 	ldw	r2,120(sp)
   80df8:	10062a1e 	bne	r2,zero,826a4 <___vfprintf_internal_r+0x1cd4>
   80dfc:	d8800417 	ldw	r2,16(sp)
   80e00:	1080030b 	ldhu	r2,12(r2)
   80e04:	1080100c 	andi	r2,r2,64
   80e08:	10074f1e 	bne	r2,zero,82b48 <___vfprintf_internal_r+0x2178>
   80e0c:	d8800617 	ldw	r2,24(sp)
   80e10:	dfc04217 	ldw	ra,264(sp)
   80e14:	df004117 	ldw	fp,260(sp)
   80e18:	ddc04017 	ldw	r23,256(sp)
   80e1c:	dd803f17 	ldw	r22,252(sp)
   80e20:	dd403e17 	ldw	r21,248(sp)
   80e24:	dd003d17 	ldw	r20,244(sp)
   80e28:	dcc03c17 	ldw	r19,240(sp)
   80e2c:	dc803b17 	ldw	r18,236(sp)
   80e30:	dc403a17 	ldw	r17,232(sp)
   80e34:	dc003917 	ldw	r16,228(sp)
   80e38:	dec04304 	addi	sp,sp,268
   80e3c:	f800283a 	ret
   80e40:	d9400417 	ldw	r5,16(sp)
   80e44:	d9000517 	ldw	r4,20(sp)
   80e48:	00873400 	call	87340 <__swsetup_r>
   80e4c:	10073e1e 	bne	r2,zero,82b48 <___vfprintf_internal_r+0x2178>
   80e50:	d8800417 	ldw	r2,16(sp)
   80e54:	1080030b 	ldhu	r2,12(r2)
   80e58:	1080068c 	andi	r2,r2,26
   80e5c:	10800298 	cmpnei	r2,r2,10
   80e60:	103f071e 	bne	r2,zero,80a80 <___vfprintf_internal_r+0xb0>
   80e64:	d8800417 	ldw	r2,16(sp)
   80e68:	1080038f 	ldh	r2,14(r2)
   80e6c:	103f0416 	blt	r2,zero,80a80 <___vfprintf_internal_r+0xb0>
   80e70:	d9c00717 	ldw	r7,28(sp)
   80e74:	d9400417 	ldw	r5,16(sp)
   80e78:	d9000517 	ldw	r4,20(sp)
   80e7c:	980d883a 	mov	r6,r19
   80e80:	dfc04217 	ldw	ra,264(sp)
   80e84:	df004117 	ldw	fp,260(sp)
   80e88:	ddc04017 	ldw	r23,256(sp)
   80e8c:	dd803f17 	ldw	r22,252(sp)
   80e90:	dd403e17 	ldw	r21,248(sp)
   80e94:	dd003d17 	ldw	r20,244(sp)
   80e98:	dcc03c17 	ldw	r19,240(sp)
   80e9c:	dc803b17 	ldw	r18,236(sp)
   80ea0:	dc403a17 	ldw	r17,232(sp)
   80ea4:	dc003917 	ldw	r16,228(sp)
   80ea8:	dec04304 	addi	sp,sp,268
   80eac:	0082d701 	jmpi	82d70 <__sbprintf>
   80eb0:	63000414 	ori	r12,r12,16
   80eb4:	6080080c 	andi	r2,r12,32
   80eb8:	1000e926 	beq	r2,zero,81260 <___vfprintf_internal_r+0x890>
   80ebc:	d8c00717 	ldw	r3,28(sp)
   80ec0:	18800117 	ldw	r2,4(r3)
   80ec4:	1c400017 	ldw	r17,0(r3)
   80ec8:	18c00204 	addi	r3,r3,8
   80ecc:	d8c00715 	stw	r3,28(sp)
   80ed0:	1039883a 	mov	fp,r2
   80ed4:	1000f016 	blt	r2,zero,81298 <___vfprintf_internal_r+0x8c8>
   80ed8:	a8bfffd8 	cmpnei	r2,r21,-1
   80edc:	d9001543 	ldbu	r4,85(sp)
   80ee0:	10011126 	beq	r2,zero,81328 <___vfprintf_internal_r+0x958>
   80ee4:	02bfdfc4 	movi	r10,-129
   80ee8:	8f04b03a 	or	r2,r17,fp
   80eec:	62ae703a 	and	r23,r12,r10
   80ef0:	10010c1e 	bne	r2,zero,81324 <___vfprintf_internal_r+0x954>
   80ef4:	00800044 	movi	r2,1
   80ef8:	a802571e 	bne	r21,zero,81858 <___vfprintf_internal_r+0xe88>
   80efc:	1003871e 	bne	r2,zero,81d1c <___vfprintf_internal_r+0x134c>
   80f00:	6700004c 	andi	fp,r12,1
   80f04:	e003e726 	beq	fp,zero,81ea4 <___vfprintf_internal_r+0x14d4>
   80f08:	00800c04 	movi	r2,48
   80f0c:	d88028c5 	stb	r2,163(sp)
   80f10:	dd8028c4 	addi	r22,sp,163
   80f14:	00003606 	br	80ff0 <___vfprintf_internal_r+0x620>
   80f18:	63000414 	ori	r12,r12,16
   80f1c:	6080080c 	andi	r2,r12,32
   80f20:	1000f026 	beq	r2,zero,812e4 <___vfprintf_internal_r+0x914>
   80f24:	d8c00717 	ldw	r3,28(sp)
   80f28:	0005883a 	mov	r2,zero
   80f2c:	1c400017 	ldw	r17,0(r3)
   80f30:	1f000117 	ldw	fp,4(r3)
   80f34:	18c00204 	addi	r3,r3,8
   80f38:	d8c00715 	stw	r3,28(sp)
   80f3c:	00000906 	br	80f64 <___vfprintf_internal_r+0x594>
   80f40:	63000414 	ori	r12,r12,16
   80f44:	6080080c 	andi	r2,r12,32
   80f48:	1000da26 	beq	r2,zero,812b4 <___vfprintf_internal_r+0x8e4>
   80f4c:	d8c00717 	ldw	r3,28(sp)
   80f50:	00800044 	movi	r2,1
   80f54:	1c400017 	ldw	r17,0(r3)
   80f58:	1f000117 	ldw	fp,4(r3)
   80f5c:	18c00204 	addi	r3,r3,8
   80f60:	d8c00715 	stw	r3,28(sp)
   80f64:	0009883a 	mov	r4,zero
   80f68:	d9001545 	stb	r4,85(sp)
   80f6c:	a8ffffe0 	cmpeqi	r3,r21,-1
   80f70:	1800051e 	bne	r3,zero,80f88 <___vfprintf_internal_r+0x5b8>
   80f74:	02bfdfc4 	movi	r10,-129
   80f78:	8f06b03a 	or	r3,r17,fp
   80f7c:	62ae703a 	and	r23,r12,r10
   80f80:	183fdd26 	beq	r3,zero,80ef8 <___vfprintf_internal_r+0x528>
   80f84:	b819883a 	mov	r12,r23
   80f88:	10c00060 	cmpeqi	r3,r2,1
   80f8c:	1800e61e 	bne	r3,zero,81328 <___vfprintf_internal_r+0x958>
   80f90:	108000a0 	cmpeqi	r2,r2,2
   80f94:	1002371e 	bne	r2,zero,81874 <___vfprintf_internal_r+0xea4>
   80f98:	902d883a 	mov	r22,r18
   80f9c:	8806d0fa 	srli	r3,r17,3
   80fa0:	e00c977a 	slli	r6,fp,29
   80fa4:	e038d0fa 	srli	fp,fp,3
   80fa8:	8c4001cc 	andi	r17,r17,7
   80fac:	88800c04 	addi	r2,r17,48
   80fb0:	30e2b03a 	or	r17,r6,r3
   80fb4:	b0bfffc5 	stb	r2,-1(r22)
   80fb8:	8f06b03a 	or	r3,r17,fp
   80fbc:	b00b883a 	mov	r5,r22
   80fc0:	b5bfffc4 	addi	r22,r22,-1
   80fc4:	183ff51e 	bne	r3,zero,80f9c <___vfprintf_internal_r+0x5cc>
   80fc8:	60c0004c 	andi	r3,r12,1
   80fcc:	18023626 	beq	r3,zero,818a8 <___vfprintf_internal_r+0xed8>
   80fd0:	10800c18 	cmpnei	r2,r2,48
   80fd4:	10023426 	beq	r2,zero,818a8 <___vfprintf_internal_r+0xed8>
   80fd8:	297fff84 	addi	r5,r5,-2
   80fdc:	00800c04 	movi	r2,48
   80fe0:	b0bfffc5 	stb	r2,-1(r22)
   80fe4:	9179c83a 	sub	fp,r18,r5
   80fe8:	602f883a 	mov	r23,r12
   80fec:	282d883a 	mov	r22,r5
   80ff0:	e017883a 	mov	r11,fp
   80ff4:	e540010e 	bge	fp,r21,80ffc <___vfprintf_internal_r+0x62c>
   80ff8:	a817883a 	mov	r11,r21
   80ffc:	d8000815 	stw	zero,32(sp)
   81000:	21003fcc 	andi	r4,r4,255
   81004:	2100201c 	xori	r4,r4,128
   81008:	213fe004 	addi	r4,r4,-128
   8100c:	203f3826 	beq	r4,zero,80cf0 <___vfprintf_internal_r+0x320>
   81010:	5ac00044 	addi	r11,r11,1
   81014:	003f3606 	br	80cf0 <___vfprintf_internal_r+0x320>
   81018:	8cebc83a 	sub	r21,r17,r19
   8101c:	8cff7526 	beq	r17,r19,80df4 <___vfprintf_internal_r+0x424>
   81020:	d8c01e17 	ldw	r3,120(sp)
   81024:	d8801d17 	ldw	r2,116(sp)
   81028:	84c00015 	stw	r19,0(r16)
   8102c:	1d47883a 	add	r3,r3,r21
   81030:	10800044 	addi	r2,r2,1
   81034:	d8801d15 	stw	r2,116(sp)
   81038:	85400115 	stw	r21,4(r16)
   8103c:	d8c01e15 	stw	r3,120(sp)
   81040:	10800208 	cmpgei	r2,r2,8
   81044:	1000061e 	bne	r2,zero,81060 <___vfprintf_internal_r+0x690>
   81048:	84000204 	addi	r16,r16,8
   8104c:	d8c00617 	ldw	r3,24(sp)
   81050:	88800003 	ldbu	r2,0(r17)
   81054:	1d47883a 	add	r3,r3,r21
   81058:	d8c00615 	stw	r3,24(sp)
   8105c:	003ea106 	br	80ae4 <___vfprintf_internal_r+0x114>
   81060:	d9400417 	ldw	r5,16(sp)
   81064:	d9000517 	ldw	r4,20(sp)
   81068:	d9801c04 	addi	r6,sp,112
   8106c:	0082f280 	call	82f28 <__sprint_r>
   81070:	103f621e 	bne	r2,zero,80dfc <___vfprintf_internal_r+0x42c>
   81074:	9021883a 	mov	r16,r18
   81078:	003ff406 	br	8104c <___vfprintf_internal_r+0x67c>
   8107c:	030002b4 	movhi	r12,10
   81080:	a8c00450 	cmplti	r3,r21,17
   81084:	d8801d17 	ldw	r2,116(sp)
   81088:	63264304 	addi	r12,r12,-26356
   8108c:	1800241e 	bne	r3,zero,81120 <___vfprintf_internal_r+0x750>
   81090:	8007883a 	mov	r3,r16
   81094:	8809883a 	mov	r4,r17
   81098:	ddc00517 	ldw	r23,20(sp)
   8109c:	05800404 	movi	r22,16
   810a0:	4021883a 	mov	r16,r8
   810a4:	5823883a 	mov	r17,r11
   810a8:	6039883a 	mov	fp,r12
   810ac:	00000406 	br	810c0 <___vfprintf_internal_r+0x6f0>
   810b0:	ad7ffc04 	addi	r21,r21,-16
   810b4:	a9400448 	cmpgei	r5,r21,17
   810b8:	18c00204 	addi	r3,r3,8
   810bc:	28001326 	beq	r5,zero,8110c <___vfprintf_internal_r+0x73c>
   810c0:	10800044 	addi	r2,r2,1
   810c4:	21000404 	addi	r4,r4,16
   810c8:	1f000015 	stw	fp,0(r3)
   810cc:	1d800115 	stw	r22,4(r3)
   810d0:	d9001e15 	stw	r4,120(sp)
   810d4:	d8801d15 	stw	r2,116(sp)
   810d8:	11400208 	cmpgei	r5,r2,8
   810dc:	283ff426 	beq	r5,zero,810b0 <___vfprintf_internal_r+0x6e0>
   810e0:	d9400417 	ldw	r5,16(sp)
   810e4:	d9801c04 	addi	r6,sp,112
   810e8:	b809883a 	mov	r4,r23
   810ec:	0082f280 	call	82f28 <__sprint_r>
   810f0:	103f421e 	bne	r2,zero,80dfc <___vfprintf_internal_r+0x42c>
   810f4:	ad7ffc04 	addi	r21,r21,-16
   810f8:	a9400448 	cmpgei	r5,r21,17
   810fc:	d9001e17 	ldw	r4,120(sp)
   81100:	d8801d17 	ldw	r2,116(sp)
   81104:	9007883a 	mov	r3,r18
   81108:	283fed1e 	bne	r5,zero,810c0 <___vfprintf_internal_r+0x6f0>
   8110c:	8011883a 	mov	r8,r16
   81110:	8817883a 	mov	r11,r17
   81114:	1821883a 	mov	r16,r3
   81118:	2023883a 	mov	r17,r4
   8111c:	e019883a 	mov	r12,fp
   81120:	10800044 	addi	r2,r2,1
   81124:	8d63883a 	add	r17,r17,r21
   81128:	d8801d15 	stw	r2,116(sp)
   8112c:	83000015 	stw	r12,0(r16)
   81130:	85400115 	stw	r21,4(r16)
   81134:	dc401e15 	stw	r17,120(sp)
   81138:	10800210 	cmplti	r2,r2,8
   8113c:	103f231e 	bne	r2,zero,80dcc <___vfprintf_internal_r+0x3fc>
   81140:	d9400417 	ldw	r5,16(sp)
   81144:	d9000517 	ldw	r4,20(sp)
   81148:	d9801c04 	addi	r6,sp,112
   8114c:	dac00f15 	stw	r11,60(sp)
   81150:	da000815 	stw	r8,32(sp)
   81154:	0082f280 	call	82f28 <__sprint_r>
   81158:	103f281e 	bne	r2,zero,80dfc <___vfprintf_internal_r+0x42c>
   8115c:	dc401e17 	ldw	r17,120(sp)
   81160:	dac00f17 	ldw	r11,60(sp)
   81164:	da000817 	ldw	r8,32(sp)
   81168:	003f1806 	br	80dcc <___vfprintf_internal_r+0x3fc>
   8116c:	d8c00717 	ldw	r3,28(sp)
   81170:	6080020c 	andi	r2,r12,8
   81174:	19000204 	addi	r4,r3,8
   81178:	d9001015 	stw	r4,64(sp)
   8117c:	10034b1e 	bne	r2,zero,81eac <___vfprintf_internal_r+0x14dc>
   81180:	d8800717 	ldw	r2,28(sp)
   81184:	10c00017 	ldw	r3,0(r2)
   81188:	10800117 	ldw	r2,4(r2)
   8118c:	d8c00a15 	stw	r3,40(sp)
   81190:	d8800b15 	stw	r2,44(sp)
   81194:	ddc00b17 	ldw	r23,44(sp)
   81198:	dd800a17 	ldw	r22,40(sp)
   8119c:	00a00034 	movhi	r2,32768
   811a0:	10bfffc4 	addi	r2,r2,-1
   811a4:	b8a2703a 	and	r17,r23,r2
   811a8:	01dffc34 	movhi	r7,32752
   811ac:	01bfffc4 	movi	r6,-1
   811b0:	39ffffc4 	addi	r7,r7,-1
   811b4:	b009883a 	mov	r4,r22
   811b8:	880b883a 	mov	r5,r17
   811bc:	da000f15 	stw	r8,60(sp)
   811c0:	db000815 	stw	r12,32(sp)
   811c4:	da400715 	stw	r9,28(sp)
   811c8:	0096c4c0 	call	96c4c <__unorddf2>
   811cc:	da400717 	ldw	r9,28(sp)
   811d0:	db000817 	ldw	r12,32(sp)
   811d4:	da000f17 	ldw	r8,60(sp)
   811d8:	10043c1e 	bne	r2,zero,822cc <___vfprintf_internal_r+0x18fc>
   811dc:	01dffc34 	movhi	r7,32752
   811e0:	01bfffc4 	movi	r6,-1
   811e4:	39ffffc4 	addi	r7,r7,-1
   811e8:	b009883a 	mov	r4,r22
   811ec:	880b883a 	mov	r5,r17
   811f0:	00959b00 	call	959b0 <__ledf2>
   811f4:	da400717 	ldw	r9,28(sp)
   811f8:	db000817 	ldw	r12,32(sp)
   811fc:	da000f17 	ldw	r8,60(sp)
   81200:	0084320e 	bge	zero,r2,822cc <___vfprintf_internal_r+0x18fc>
   81204:	000d883a 	mov	r6,zero
   81208:	000f883a 	mov	r7,zero
   8120c:	b009883a 	mov	r4,r22
   81210:	b80b883a 	mov	r5,r23
   81214:	00959b00 	call	959b0 <__ledf2>
   81218:	da400717 	ldw	r9,28(sp)
   8121c:	db000817 	ldw	r12,32(sp)
   81220:	da000f17 	ldw	r8,60(sp)
   81224:	10050816 	blt	r2,zero,82648 <___vfprintf_internal_r+0x1c78>
   81228:	d9001543 	ldbu	r4,85(sp)
   8122c:	48801210 	cmplti	r2,r9,72
   81230:	1004ed1e 	bne	r2,zero,825e8 <___vfprintf_internal_r+0x1c18>
   81234:	058002b4 	movhi	r22,10
   81238:	b5a62f04 	addi	r22,r22,-26436
   8123c:	d8801017 	ldw	r2,64(sp)
   81240:	02bfdfc4 	movi	r10,-129
   81244:	62ae703a 	and	r23,r12,r10
   81248:	d8800715 	stw	r2,28(sp)
   8124c:	02c000c4 	movi	r11,3
   81250:	070000c4 	movi	fp,3
   81254:	002b883a 	mov	r21,zero
   81258:	d8000815 	stw	zero,32(sp)
   8125c:	003f6806 	br	81000 <___vfprintf_internal_r+0x630>
   81260:	d8c00717 	ldw	r3,28(sp)
   81264:	6080040c 	andi	r2,r12,16
   81268:	1c400017 	ldw	r17,0(r3)
   8126c:	1dc00104 	addi	r23,r3,4
   81270:	1000281e 	bne	r2,zero,81314 <___vfprintf_internal_r+0x944>
   81274:	6080100c 	andi	r2,r12,64
   81278:	10002626 	beq	r2,zero,81314 <___vfprintf_internal_r+0x944>
   8127c:	8c7fffcc 	andi	r17,r17,65535
   81280:	8c60001c 	xori	r17,r17,32768
   81284:	8c600004 	addi	r17,r17,-32768
   81288:	8839d7fa 	srai	fp,r17,31
   8128c:	ddc00715 	stw	r23,28(sp)
   81290:	e005883a 	mov	r2,fp
   81294:	103f100e 	bge	r2,zero,80ed8 <___vfprintf_internal_r+0x508>
   81298:	8804c03a 	cmpne	r2,r17,zero
   8129c:	0739c83a 	sub	fp,zero,fp
   812a0:	e0b9c83a 	sub	fp,fp,r2
   812a4:	0463c83a 	sub	r17,zero,r17
   812a8:	01000b44 	movi	r4,45
   812ac:	00800044 	movi	r2,1
   812b0:	003f2d06 	br	80f68 <___vfprintf_internal_r+0x598>
   812b4:	d8c00717 	ldw	r3,28(sp)
   812b8:	6080040c 	andi	r2,r12,16
   812bc:	1c400017 	ldw	r17,0(r3)
   812c0:	1dc00104 	addi	r23,r3,4
   812c4:	1000031e 	bne	r2,zero,812d4 <___vfprintf_internal_r+0x904>
   812c8:	6080100c 	andi	r2,r12,64
   812cc:	10000126 	beq	r2,zero,812d4 <___vfprintf_internal_r+0x904>
   812d0:	8c7fffcc 	andi	r17,r17,65535
   812d4:	0039883a 	mov	fp,zero
   812d8:	ddc00715 	stw	r23,28(sp)
   812dc:	00800044 	movi	r2,1
   812e0:	003f2006 	br	80f64 <___vfprintf_internal_r+0x594>
   812e4:	d8c00717 	ldw	r3,28(sp)
   812e8:	6080040c 	andi	r2,r12,16
   812ec:	1c400017 	ldw	r17,0(r3)
   812f0:	1dc00104 	addi	r23,r3,4
   812f4:	1000031e 	bne	r2,zero,81304 <___vfprintf_internal_r+0x934>
   812f8:	6080100c 	andi	r2,r12,64
   812fc:	10000126 	beq	r2,zero,81304 <___vfprintf_internal_r+0x934>
   81300:	8c7fffcc 	andi	r17,r17,65535
   81304:	0039883a 	mov	fp,zero
   81308:	ddc00715 	stw	r23,28(sp)
   8130c:	0005883a 	mov	r2,zero
   81310:	003f1406 	br	80f64 <___vfprintf_internal_r+0x594>
   81314:	8839d7fa 	srai	fp,r17,31
   81318:	ddc00715 	stw	r23,28(sp)
   8131c:	e005883a 	mov	r2,fp
   81320:	003eec06 	br	80ed4 <___vfprintf_internal_r+0x504>
   81324:	b819883a 	mov	r12,r23
   81328:	e0034c1e 	bne	fp,zero,8205c <___vfprintf_internal_r+0x168c>
   8132c:	888002a8 	cmpgeui	r2,r17,10
   81330:	10034a1e 	bne	r2,zero,8205c <___vfprintf_internal_r+0x168c>
   81334:	8c400c04 	addi	r17,r17,48
   81338:	dc4028c5 	stb	r17,163(sp)
   8133c:	602f883a 	mov	r23,r12
   81340:	07000044 	movi	fp,1
   81344:	dd8028c4 	addi	r22,sp,163
   81348:	003f2906 	br	80ff0 <___vfprintf_internal_r+0x620>
   8134c:	d8800717 	ldw	r2,28(sp)
   81350:	12000017 	ldw	r8,0(r2)
   81354:	10800104 	addi	r2,r2,4
   81358:	4002cf0e 	bge	r8,zero,81e98 <___vfprintf_internal_r+0x14c8>
   8135c:	0211c83a 	sub	r8,zero,r8
   81360:	d8800715 	stw	r2,28(sp)
   81364:	9a400007 	ldb	r9,0(r19)
   81368:	63000114 	ori	r12,r12,4
   8136c:	003de706 	br	80b0c <___vfprintf_internal_r+0x13c>
   81370:	9a400007 	ldb	r9,0(r19)
   81374:	98800044 	addi	r2,r19,1
   81378:	48c00aa0 	cmpeqi	r3,r9,42
   8137c:	1806581e 	bne	r3,zero,82ce0 <___vfprintf_internal_r+0x2310>
   81380:	48fff404 	addi	r3,r9,-48
   81384:	190002b0 	cmpltui	r4,r3,10
   81388:	1027883a 	mov	r19,r2
   8138c:	002b883a 	mov	r21,zero
   81390:	203ddf26 	beq	r4,zero,80b10 <___vfprintf_internal_r+0x140>
   81394:	a80490ba 	slli	r2,r21,2
   81398:	9a400007 	ldb	r9,0(r19)
   8139c:	9cc00044 	addi	r19,r19,1
   813a0:	156b883a 	add	r21,r2,r21
   813a4:	ad6b883a 	add	r21,r21,r21
   813a8:	a8eb883a 	add	r21,r21,r3
   813ac:	48fff404 	addi	r3,r9,-48
   813b0:	188002b0 	cmpltui	r2,r3,10
   813b4:	103ff71e 	bne	r2,zero,81394 <___vfprintf_internal_r+0x9c4>
   813b8:	003dd506 	br	80b10 <___vfprintf_internal_r+0x140>
   813bc:	9a400007 	ldb	r9,0(r19)
   813c0:	63002014 	ori	r12,r12,128
   813c4:	003dd106 	br	80b0c <___vfprintf_internal_r+0x13c>
   813c8:	00800ac4 	movi	r2,43
   813cc:	9a400007 	ldb	r9,0(r19)
   813d0:	d8801545 	stb	r2,85(sp)
   813d4:	003dcd06 	br	80b0c <___vfprintf_internal_r+0x13c>
   813d8:	9a400007 	ldb	r9,0(r19)
   813dc:	63000054 	ori	r12,r12,1
   813e0:	003dca06 	br	80b0c <___vfprintf_internal_r+0x13c>
   813e4:	d8801547 	ldb	r2,85(sp)
   813e8:	9a400003 	ldbu	r9,0(r19)
   813ec:	10000c1e 	bne	r2,zero,81420 <___vfprintf_internal_r+0xa50>
   813f0:	4a403fcc 	andi	r9,r9,255
   813f4:	00800804 	movi	r2,32
   813f8:	4a40201c 	xori	r9,r9,128
   813fc:	d8801545 	stb	r2,85(sp)
   81400:	4a7fe004 	addi	r9,r9,-128
   81404:	003dc106 	br	80b0c <___vfprintf_internal_r+0x13c>
   81408:	9a400007 	ldb	r9,0(r19)
   8140c:	48801b18 	cmpnei	r2,r9,108
   81410:	10029f1e 	bne	r2,zero,81e90 <___vfprintf_internal_r+0x14c0>
   81414:	9a400043 	ldbu	r9,1(r19)
   81418:	63000814 	ori	r12,r12,32
   8141c:	9cc00044 	addi	r19,r19,1
   81420:	4a403fcc 	andi	r9,r9,255
   81424:	4a40201c 	xori	r9,r9,128
   81428:	4a7fe004 	addi	r9,r9,-128
   8142c:	003db706 	br	80b0c <___vfprintf_internal_r+0x13c>
   81430:	9a400007 	ldb	r9,0(r19)
   81434:	63000214 	ori	r12,r12,8
   81438:	003db406 	br	80b0c <___vfprintf_internal_r+0x13c>
   8143c:	9a400007 	ldb	r9,0(r19)
   81440:	63001014 	ori	r12,r12,64
   81444:	003db106 	br	80b0c <___vfprintf_internal_r+0x13c>
   81448:	d8c00717 	ldw	r3,28(sp)
   8144c:	d8001545 	stb	zero,85(sp)
   81450:	02c00044 	movi	r11,1
   81454:	18800017 	ldw	r2,0(r3)
   81458:	18c00104 	addi	r3,r3,4
   8145c:	d8c00715 	stw	r3,28(sp)
   81460:	d8801f05 	stb	r2,124(sp)
   81464:	07000044 	movi	fp,1
   81468:	dd801f04 	addi	r22,sp,124
   8146c:	003e1d06 	br	80ce4 <___vfprintf_internal_r+0x314>
   81470:	d8800717 	ldw	r2,28(sp)
   81474:	d8001545 	stb	zero,85(sp)
   81478:	15800017 	ldw	r22,0(r2)
   8147c:	15c00104 	addi	r23,r2,4
   81480:	b002ca26 	beq	r22,zero,81fac <___vfprintf_internal_r+0x15dc>
   81484:	da000f15 	stw	r8,60(sp)
   81488:	db000815 	stw	r12,32(sp)
   8148c:	da400715 	stw	r9,28(sp)
   81490:	a8bfffe0 	cmpeqi	r2,r21,-1
   81494:	10031e1e 	bne	r2,zero,82110 <___vfprintf_internal_r+0x1740>
   81498:	a80d883a 	mov	r6,r21
   8149c:	000b883a 	mov	r5,zero
   814a0:	b009883a 	mov	r4,r22
   814a4:	00876840 	call	87684 <memchr>
   814a8:	da400717 	ldw	r9,28(sp)
   814ac:	db000817 	ldw	r12,32(sp)
   814b0:	da000f17 	ldw	r8,60(sp)
   814b4:	10058226 	beq	r2,zero,82ac0 <___vfprintf_internal_r+0x20f0>
   814b8:	15b9c83a 	sub	fp,r2,r22
   814bc:	d9001543 	ldbu	r4,85(sp)
   814c0:	e017883a 	mov	r11,fp
   814c4:	e0031b16 	blt	fp,zero,82134 <___vfprintf_internal_r+0x1764>
   814c8:	ddc00715 	stw	r23,28(sp)
   814cc:	002b883a 	mov	r21,zero
   814d0:	602f883a 	mov	r23,r12
   814d4:	d8000815 	stw	zero,32(sp)
   814d8:	003ec906 	br	81000 <___vfprintf_internal_r+0x630>
   814dc:	9a400007 	ldb	r9,0(r19)
   814e0:	63000814 	ori	r12,r12,32
   814e4:	003d8906 	br	80b0c <___vfprintf_internal_r+0x13c>
   814e8:	d8c00717 	ldw	r3,28(sp)
   814ec:	009e0c04 	movi	r2,30768
   814f0:	010002b4 	movhi	r4,10
   814f4:	d880158d 	sth	r2,86(sp)
   814f8:	18800104 	addi	r2,r3,4
   814fc:	d8800715 	stw	r2,28(sp)
   81500:	20a63704 	addi	r2,r4,-26404
   81504:	d8800e15 	stw	r2,56(sp)
   81508:	1c400017 	ldw	r17,0(r3)
   8150c:	0039883a 	mov	fp,zero
   81510:	63000094 	ori	r12,r12,2
   81514:	00800084 	movi	r2,2
   81518:	02401e04 	movi	r9,120
   8151c:	003e9106 	br	80f64 <___vfprintf_internal_r+0x594>
   81520:	6080080c 	andi	r2,r12,32
   81524:	10026626 	beq	r2,zero,81ec0 <___vfprintf_internal_r+0x14f0>
   81528:	d9000617 	ldw	r4,24(sp)
   8152c:	d8800717 	ldw	r2,28(sp)
   81530:	2007d7fa 	srai	r3,r4,31
   81534:	10800017 	ldw	r2,0(r2)
   81538:	11000015 	stw	r4,0(r2)
   8153c:	10c00115 	stw	r3,4(r2)
   81540:	d8800717 	ldw	r2,28(sp)
   81544:	10800104 	addi	r2,r2,4
   81548:	d8800715 	stw	r2,28(sp)
   8154c:	003d5906 	br	80ab4 <___vfprintf_internal_r+0xe4>
   81550:	4a401990 	cmplti	r9,r9,102
   81554:	4800dd1e 	bne	r9,zero,818cc <___vfprintf_internal_r+0xefc>
   81558:	d9000a17 	ldw	r4,40(sp)
   8155c:	d9400b17 	ldw	r5,44(sp)
   81560:	000d883a 	mov	r6,zero
   81564:	000f883a 	mov	r7,zero
   81568:	dac01015 	stw	r11,64(sp)
   8156c:	da000f15 	stw	r8,60(sp)
   81570:	00958200 	call	95820 <__eqdf2>
   81574:	da000f17 	ldw	r8,60(sp)
   81578:	dac01017 	ldw	r11,64(sp)
   8157c:	1001871e 	bne	r2,zero,81b9c <___vfprintf_internal_r+0x11cc>
   81580:	d8801d17 	ldw	r2,116(sp)
   81584:	00c002b4 	movhi	r3,10
   81588:	18e63e04 	addi	r3,r3,-26376
   8158c:	10800044 	addi	r2,r2,1
   81590:	8c400044 	addi	r17,r17,1
   81594:	80c00015 	stw	r3,0(r16)
   81598:	00c00044 	movi	r3,1
   8159c:	d8801d15 	stw	r2,116(sp)
   815a0:	80c00115 	stw	r3,4(r16)
   815a4:	dc401e15 	stw	r17,120(sp)
   815a8:	10800208 	cmpgei	r2,r2,8
   815ac:	1003aa1e 	bne	r2,zero,82458 <___vfprintf_internal_r+0x1a88>
   815b0:	84000204 	addi	r16,r16,8
   815b4:	d8801617 	ldw	r2,88(sp)
   815b8:	d8c00917 	ldw	r3,36(sp)
   815bc:	10c2310e 	bge	r2,r3,81e84 <___vfprintf_internal_r+0x14b4>
   815c0:	d8800d17 	ldw	r2,52(sp)
   815c4:	d8c00c17 	ldw	r3,48(sp)
   815c8:	80800015 	stw	r2,0(r16)
   815cc:	d8801d17 	ldw	r2,116(sp)
   815d0:	88e3883a 	add	r17,r17,r3
   815d4:	80c00115 	stw	r3,4(r16)
   815d8:	10800044 	addi	r2,r2,1
   815dc:	d8801d15 	stw	r2,116(sp)
   815e0:	dc401e15 	stw	r17,120(sp)
   815e4:	10800208 	cmpgei	r2,r2,8
   815e8:	10024c1e 	bne	r2,zero,81f1c <___vfprintf_internal_r+0x154c>
   815ec:	84000204 	addi	r16,r16,8
   815f0:	d8800917 	ldw	r2,36(sp)
   815f4:	157fffc4 	addi	r21,r2,-1
   815f8:	057df00e 	bge	zero,r21,80dbc <___vfprintf_internal_r+0x3ec>
   815fc:	030002b4 	movhi	r12,10
   81600:	a8c00450 	cmplti	r3,r21,17
   81604:	d8801d17 	ldw	r2,116(sp)
   81608:	63263f04 	addi	r12,r12,-26372
   8160c:	18012d1e 	bne	r3,zero,81ac4 <___vfprintf_internal_r+0x10f4>
   81610:	8007883a 	mov	r3,r16
   81614:	8809883a 	mov	r4,r17
   81618:	a821883a 	mov	r16,r21
   8161c:	05800404 	movi	r22,16
   81620:	a02b883a 	mov	r21,r20
   81624:	4023883a 	mov	r17,r8
   81628:	9829883a 	mov	r20,r19
   8162c:	6039883a 	mov	fp,r12
   81630:	5827883a 	mov	r19,r11
   81634:	00000406 	br	81648 <___vfprintf_internal_r+0xc78>
   81638:	18c00204 	addi	r3,r3,8
   8163c:	843ffc04 	addi	r16,r16,-16
   81640:	81400448 	cmpgei	r5,r16,17
   81644:	28011726 	beq	r5,zero,81aa4 <___vfprintf_internal_r+0x10d4>
   81648:	10800044 	addi	r2,r2,1
   8164c:	21000404 	addi	r4,r4,16
   81650:	1f000015 	stw	fp,0(r3)
   81654:	1d800115 	stw	r22,4(r3)
   81658:	d9001e15 	stw	r4,120(sp)
   8165c:	d8801d15 	stw	r2,116(sp)
   81660:	11400208 	cmpgei	r5,r2,8
   81664:	283ff426 	beq	r5,zero,81638 <___vfprintf_internal_r+0xc68>
   81668:	d9400417 	ldw	r5,16(sp)
   8166c:	d9000517 	ldw	r4,20(sp)
   81670:	d9801c04 	addi	r6,sp,112
   81674:	0082f280 	call	82f28 <__sprint_r>
   81678:	103de01e 	bne	r2,zero,80dfc <___vfprintf_internal_r+0x42c>
   8167c:	d9001e17 	ldw	r4,120(sp)
   81680:	d8801d17 	ldw	r2,116(sp)
   81684:	9007883a 	mov	r3,r18
   81688:	003fec06 	br	8163c <___vfprintf_internal_r+0xc6c>
   8168c:	42c7c83a 	sub	r3,r8,r11
   81690:	00fdbc0e 	bge	zero,r3,80d84 <___vfprintf_internal_r+0x3b4>
   81694:	030002b4 	movhi	r12,10
   81698:	19000450 	cmplti	r4,r3,17
   8169c:	d8801d17 	ldw	r2,116(sp)
   816a0:	63263f04 	addi	r12,r12,-26372
   816a4:	2000281e 	bne	r4,zero,81748 <___vfprintf_internal_r+0xd78>
   816a8:	8009883a 	mov	r4,r16
   816ac:	880b883a 	mov	r5,r17
   816b0:	03400404 	movi	r13,16
   816b4:	da400f15 	stw	r9,60(sp)
   816b8:	da001015 	stw	r8,64(sp)
   816bc:	1821883a 	mov	r16,r3
   816c0:	dac01215 	stw	r11,72(sp)
   816c4:	6023883a 	mov	r17,r12
   816c8:	00000406 	br	816dc <___vfprintf_internal_r+0xd0c>
   816cc:	843ffc04 	addi	r16,r16,-16
   816d0:	81800448 	cmpgei	r6,r16,17
   816d4:	21000204 	addi	r4,r4,8
   816d8:	30001426 	beq	r6,zero,8172c <___vfprintf_internal_r+0xd5c>
   816dc:	10800044 	addi	r2,r2,1
   816e0:	29400404 	addi	r5,r5,16
   816e4:	24400015 	stw	r17,0(r4)
   816e8:	23400115 	stw	r13,4(r4)
   816ec:	d9401e15 	stw	r5,120(sp)
   816f0:	d8801d15 	stw	r2,116(sp)
   816f4:	11800208 	cmpgei	r6,r2,8
   816f8:	303ff426 	beq	r6,zero,816cc <___vfprintf_internal_r+0xcfc>
   816fc:	d9400417 	ldw	r5,16(sp)
   81700:	d9000517 	ldw	r4,20(sp)
   81704:	d9801c04 	addi	r6,sp,112
   81708:	0082f280 	call	82f28 <__sprint_r>
   8170c:	103dbb1e 	bne	r2,zero,80dfc <___vfprintf_internal_r+0x42c>
   81710:	843ffc04 	addi	r16,r16,-16
   81714:	81800448 	cmpgei	r6,r16,17
   81718:	d9401e17 	ldw	r5,120(sp)
   8171c:	d8801d17 	ldw	r2,116(sp)
   81720:	9009883a 	mov	r4,r18
   81724:	03400404 	movi	r13,16
   81728:	303fec1e 	bne	r6,zero,816dc <___vfprintf_internal_r+0xd0c>
   8172c:	da400f17 	ldw	r9,60(sp)
   81730:	da001017 	ldw	r8,64(sp)
   81734:	dac01217 	ldw	r11,72(sp)
   81738:	8007883a 	mov	r3,r16
   8173c:	8819883a 	mov	r12,r17
   81740:	2021883a 	mov	r16,r4
   81744:	2823883a 	mov	r17,r5
   81748:	10800044 	addi	r2,r2,1
   8174c:	88e3883a 	add	r17,r17,r3
   81750:	d8801d15 	stw	r2,116(sp)
   81754:	83000015 	stw	r12,0(r16)
   81758:	80c00115 	stw	r3,4(r16)
   8175c:	dc401e15 	stw	r17,120(sp)
   81760:	10800208 	cmpgei	r2,r2,8
   81764:	1003581e 	bne	r2,zero,824c8 <___vfprintf_internal_r+0x1af8>
   81768:	af2bc83a 	sub	r21,r21,fp
   8176c:	84000204 	addi	r16,r16,8
   81770:	057d860e 	bge	zero,r21,80d8c <___vfprintf_internal_r+0x3bc>
   81774:	a8c00450 	cmplti	r3,r21,17
   81778:	d8801d17 	ldw	r2,116(sp)
   8177c:	18039d1e 	bne	r3,zero,825f4 <___vfprintf_internal_r+0x1c24>
   81780:	8009883a 	mov	r4,r16
   81784:	880b883a 	mov	r5,r17
   81788:	a821883a 	mov	r16,r21
   8178c:	a023883a 	mov	r17,r20
   81790:	a02b883a 	mov	r21,r20
   81794:	00c00404 	movi	r3,16
   81798:	9829883a 	mov	r20,r19
   8179c:	da400f15 	stw	r9,60(sp)
   817a0:	da001015 	stw	r8,64(sp)
   817a4:	5827883a 	mov	r19,r11
   817a8:	00000406 	br	817bc <___vfprintf_internal_r+0xdec>
   817ac:	843ffc04 	addi	r16,r16,-16
   817b0:	81800448 	cmpgei	r6,r16,17
   817b4:	21000204 	addi	r4,r4,8
   817b8:	30001426 	beq	r6,zero,8180c <___vfprintf_internal_r+0xe3c>
   817bc:	10800044 	addi	r2,r2,1
   817c0:	29400404 	addi	r5,r5,16
   817c4:	24400015 	stw	r17,0(r4)
   817c8:	20c00115 	stw	r3,4(r4)
   817cc:	d9401e15 	stw	r5,120(sp)
   817d0:	d8801d15 	stw	r2,116(sp)
   817d4:	11800208 	cmpgei	r6,r2,8
   817d8:	303ff426 	beq	r6,zero,817ac <___vfprintf_internal_r+0xddc>
   817dc:	d9400417 	ldw	r5,16(sp)
   817e0:	d9000517 	ldw	r4,20(sp)
   817e4:	d9801c04 	addi	r6,sp,112
   817e8:	0082f280 	call	82f28 <__sprint_r>
   817ec:	103d831e 	bne	r2,zero,80dfc <___vfprintf_internal_r+0x42c>
   817f0:	843ffc04 	addi	r16,r16,-16
   817f4:	81800448 	cmpgei	r6,r16,17
   817f8:	d9401e17 	ldw	r5,120(sp)
   817fc:	d8801d17 	ldw	r2,116(sp)
   81800:	9009883a 	mov	r4,r18
   81804:	00c00404 	movi	r3,16
   81808:	303fec1e 	bne	r6,zero,817bc <___vfprintf_internal_r+0xdec>
   8180c:	da400f17 	ldw	r9,60(sp)
   81810:	da001017 	ldw	r8,64(sp)
   81814:	9817883a 	mov	r11,r19
   81818:	a819883a 	mov	r12,r21
   8181c:	a027883a 	mov	r19,r20
   81820:	802b883a 	mov	r21,r16
   81824:	8829883a 	mov	r20,r17
   81828:	2021883a 	mov	r16,r4
   8182c:	2823883a 	mov	r17,r5
   81830:	10800044 	addi	r2,r2,1
   81834:	8d63883a 	add	r17,r17,r21
   81838:	d8801d15 	stw	r2,116(sp)
   8183c:	83000015 	stw	r12,0(r16)
   81840:	85400115 	stw	r21,4(r16)
   81844:	dc401e15 	stw	r17,120(sp)
   81848:	10800208 	cmpgei	r2,r2,8
   8184c:	1001731e 	bne	r2,zero,81e1c <___vfprintf_internal_r+0x144c>
   81850:	84000204 	addi	r16,r16,8
   81854:	003d4d06 	br	80d8c <___vfprintf_internal_r+0x3bc>
   81858:	10c00060 	cmpeqi	r3,r2,1
   8185c:	b819883a 	mov	r12,r23
   81860:	0023883a 	mov	r17,zero
   81864:	183eb31e 	bne	r3,zero,81334 <___vfprintf_internal_r+0x964>
   81868:	108000a0 	cmpeqi	r2,r2,2
   8186c:	0039883a 	mov	fp,zero
   81870:	103dc926 	beq	r2,zero,80f98 <___vfprintf_internal_r+0x5c8>
   81874:	d9400e17 	ldw	r5,56(sp)
   81878:	902d883a 	mov	r22,r18
   8187c:	888003cc 	andi	r2,r17,15
   81880:	e006973a 	slli	r3,fp,28
   81884:	8822d13a 	srli	r17,r17,4
   81888:	2885883a 	add	r2,r5,r2
   8188c:	10800003 	ldbu	r2,0(r2)
   81890:	e038d13a 	srli	fp,fp,4
   81894:	1c62b03a 	or	r17,r3,r17
   81898:	b0bfffc5 	stb	r2,-1(r22)
   8189c:	8f04b03a 	or	r2,r17,fp
   818a0:	b5bfffc4 	addi	r22,r22,-1
   818a4:	103ff51e 	bne	r2,zero,8187c <___vfprintf_internal_r+0xeac>
   818a8:	95b9c83a 	sub	fp,r18,r22
   818ac:	602f883a 	mov	r23,r12
   818b0:	003dcf06 	br	80ff0 <___vfprintf_internal_r+0x620>
   818b4:	d9400417 	ldw	r5,16(sp)
   818b8:	d9000517 	ldw	r4,20(sp)
   818bc:	d9801c04 	addi	r6,sp,112
   818c0:	0082f280 	call	82f28 <__sprint_r>
   818c4:	103d4726 	beq	r2,zero,80de4 <___vfprintf_internal_r+0x414>
   818c8:	003d4c06 	br	80dfc <___vfprintf_internal_r+0x42c>
   818cc:	d8800917 	ldw	r2,36(sp)
   818d0:	dd401d17 	ldw	r21,116(sp)
   818d4:	8c400044 	addi	r17,r17,1
   818d8:	10800088 	cmpgei	r2,r2,2
   818dc:	ad400044 	addi	r21,r21,1
   818e0:	87000204 	addi	fp,r16,8
   818e4:	10011026 	beq	r2,zero,81d28 <___vfprintf_internal_r+0x1358>
   818e8:	00800044 	movi	r2,1
   818ec:	80800115 	stw	r2,4(r16)
   818f0:	85800015 	stw	r22,0(r16)
   818f4:	dc401e15 	stw	r17,120(sp)
   818f8:	dd401d15 	stw	r21,116(sp)
   818fc:	a8800210 	cmplti	r2,r21,8
   81900:	10021e26 	beq	r2,zero,8217c <___vfprintf_internal_r+0x17ac>
   81904:	d8800c17 	ldw	r2,48(sp)
   81908:	d8c00d17 	ldw	r3,52(sp)
   8190c:	ad400044 	addi	r21,r21,1
   81910:	88a3883a 	add	r17,r17,r2
   81914:	e0800115 	stw	r2,4(fp)
   81918:	e0c00015 	stw	r3,0(fp)
   8191c:	dc401e15 	stw	r17,120(sp)
   81920:	dd401d15 	stw	r21,116(sp)
   81924:	a8800208 	cmpgei	r2,r21,8
   81928:	1002211e 	bne	r2,zero,821b0 <___vfprintf_internal_r+0x17e0>
   8192c:	e7000204 	addi	fp,fp,8
   81930:	d9000a17 	ldw	r4,40(sp)
   81934:	d9400b17 	ldw	r5,44(sp)
   81938:	000d883a 	mov	r6,zero
   8193c:	000f883a 	mov	r7,zero
   81940:	dac00f15 	stw	r11,60(sp)
   81944:	da000815 	stw	r8,32(sp)
   81948:	00958200 	call	95820 <__eqdf2>
   8194c:	d8c00917 	ldw	r3,36(sp)
   81950:	da000817 	ldw	r8,32(sp)
   81954:	dac00f17 	ldw	r11,60(sp)
   81958:	1c3fffc4 	addi	r16,r3,-1
   8195c:	10010826 	beq	r2,zero,81d80 <___vfprintf_internal_r+0x13b0>
   81960:	b5800044 	addi	r22,r22,1
   81964:	ad400044 	addi	r21,r21,1
   81968:	8c23883a 	add	r17,r17,r16
   8196c:	e5800015 	stw	r22,0(fp)
   81970:	e4000115 	stw	r16,4(fp)
   81974:	dc401e15 	stw	r17,120(sp)
   81978:	dd401d15 	stw	r21,116(sp)
   8197c:	a8800208 	cmpgei	r2,r21,8
   81980:	1002c11e 	bne	r2,zero,82488 <___vfprintf_internal_r+0x1ab8>
   81984:	e7000204 	addi	fp,fp,8
   81988:	d8c01117 	ldw	r3,68(sp)
   8198c:	ad400044 	addi	r21,r21,1
   81990:	d8801804 	addi	r2,sp,96
   81994:	1c63883a 	add	r17,r3,r17
   81998:	dd401d15 	stw	r21,116(sp)
   8199c:	e0800015 	stw	r2,0(fp)
   819a0:	e0c00115 	stw	r3,4(fp)
   819a4:	dc401e15 	stw	r17,120(sp)
   819a8:	ad400208 	cmpgei	r21,r21,8
   819ac:	a801291e 	bne	r21,zero,81e54 <___vfprintf_internal_r+0x1484>
   819b0:	e4000204 	addi	r16,fp,8
   819b4:	003d0106 	br	80dbc <___vfprintf_internal_r+0x3ec>
   819b8:	030002b4 	movhi	r12,10
   819bc:	19000450 	cmplti	r4,r3,17
   819c0:	d8801d17 	ldw	r2,116(sp)
   819c4:	63264304 	addi	r12,r12,-26356
   819c8:	20002c1e 	bne	r4,zero,81a7c <___vfprintf_internal_r+0x10ac>
   819cc:	8009883a 	mov	r4,r16
   819d0:	880b883a 	mov	r5,r17
   819d4:	03c00404 	movi	r15,16
   819d8:	db800f15 	stw	r14,60(sp)
   819dc:	db401015 	stw	r13,64(sp)
   819e0:	da401215 	stw	r9,72(sp)
   819e4:	da001315 	stw	r8,76(sp)
   819e8:	1821883a 	mov	r16,r3
   819ec:	dac01415 	stw	r11,80(sp)
   819f0:	6023883a 	mov	r17,r12
   819f4:	00000406 	br	81a08 <___vfprintf_internal_r+0x1038>
   819f8:	843ffc04 	addi	r16,r16,-16
   819fc:	81800448 	cmpgei	r6,r16,17
   81a00:	21000204 	addi	r4,r4,8
   81a04:	30001426 	beq	r6,zero,81a58 <___vfprintf_internal_r+0x1088>
   81a08:	10800044 	addi	r2,r2,1
   81a0c:	29400404 	addi	r5,r5,16
   81a10:	24400015 	stw	r17,0(r4)
   81a14:	23c00115 	stw	r15,4(r4)
   81a18:	d9401e15 	stw	r5,120(sp)
   81a1c:	d8801d15 	stw	r2,116(sp)
   81a20:	11800208 	cmpgei	r6,r2,8
   81a24:	303ff426 	beq	r6,zero,819f8 <___vfprintf_internal_r+0x1028>
   81a28:	d9400417 	ldw	r5,16(sp)
   81a2c:	d9000517 	ldw	r4,20(sp)
   81a30:	d9801c04 	addi	r6,sp,112
   81a34:	0082f280 	call	82f28 <__sprint_r>
   81a38:	103cf01e 	bne	r2,zero,80dfc <___vfprintf_internal_r+0x42c>
   81a3c:	843ffc04 	addi	r16,r16,-16
   81a40:	81800448 	cmpgei	r6,r16,17
   81a44:	d9401e17 	ldw	r5,120(sp)
   81a48:	d8801d17 	ldw	r2,116(sp)
   81a4c:	9009883a 	mov	r4,r18
   81a50:	03c00404 	movi	r15,16
   81a54:	303fec1e 	bne	r6,zero,81a08 <___vfprintf_internal_r+0x1038>
   81a58:	db800f17 	ldw	r14,60(sp)
   81a5c:	db401017 	ldw	r13,64(sp)
   81a60:	da401217 	ldw	r9,72(sp)
   81a64:	da001317 	ldw	r8,76(sp)
   81a68:	dac01417 	ldw	r11,80(sp)
   81a6c:	8007883a 	mov	r3,r16
   81a70:	8819883a 	mov	r12,r17
   81a74:	2021883a 	mov	r16,r4
   81a78:	2823883a 	mov	r17,r5
   81a7c:	10800044 	addi	r2,r2,1
   81a80:	88e3883a 	add	r17,r17,r3
   81a84:	d8801d15 	stw	r2,116(sp)
   81a88:	83000015 	stw	r12,0(r16)
   81a8c:	80c00115 	stw	r3,4(r16)
   81a90:	dc401e15 	stw	r17,120(sp)
   81a94:	10800208 	cmpgei	r2,r2,8
   81a98:	1001fa1e 	bne	r2,zero,82284 <___vfprintf_internal_r+0x18b4>
   81a9c:	84000204 	addi	r16,r16,8
   81aa0:	003c9b06 	br	80d10 <___vfprintf_internal_r+0x340>
   81aa4:	8811883a 	mov	r8,r17
   81aa8:	9817883a 	mov	r11,r19
   81aac:	2023883a 	mov	r17,r4
   81ab0:	a027883a 	mov	r19,r20
   81ab4:	e019883a 	mov	r12,fp
   81ab8:	a829883a 	mov	r20,r21
   81abc:	802b883a 	mov	r21,r16
   81ac0:	1821883a 	mov	r16,r3
   81ac4:	10800044 	addi	r2,r2,1
   81ac8:	83000015 	stw	r12,0(r16)
   81acc:	85400115 	stw	r21,4(r16)
   81ad0:	8d63883a 	add	r17,r17,r21
   81ad4:	d8801d15 	stw	r2,116(sp)
   81ad8:	dc401e15 	stw	r17,120(sp)
   81adc:	10800208 	cmpgei	r2,r2,8
   81ae0:	103cb526 	beq	r2,zero,80db8 <___vfprintf_internal_r+0x3e8>
   81ae4:	d9400417 	ldw	r5,16(sp)
   81ae8:	d9000517 	ldw	r4,20(sp)
   81aec:	d9801c04 	addi	r6,sp,112
   81af0:	dac00f15 	stw	r11,60(sp)
   81af4:	da000815 	stw	r8,32(sp)
   81af8:	0082f280 	call	82f28 <__sprint_r>
   81afc:	103cbf1e 	bne	r2,zero,80dfc <___vfprintf_internal_r+0x42c>
   81b00:	dc401e17 	ldw	r17,120(sp)
   81b04:	da000817 	ldw	r8,32(sp)
   81b08:	dac00f17 	ldw	r11,60(sp)
   81b0c:	9021883a 	mov	r16,r18
   81b10:	003caa06 	br	80dbc <___vfprintf_internal_r+0x3ec>
   81b14:	d9400417 	ldw	r5,16(sp)
   81b18:	d9000517 	ldw	r4,20(sp)
   81b1c:	d9801c04 	addi	r6,sp,112
   81b20:	dac01415 	stw	r11,80(sp)
   81b24:	da001315 	stw	r8,76(sp)
   81b28:	da401215 	stw	r9,72(sp)
   81b2c:	db401015 	stw	r13,64(sp)
   81b30:	db800f15 	stw	r14,60(sp)
   81b34:	0082f280 	call	82f28 <__sprint_r>
   81b38:	103cb01e 	bne	r2,zero,80dfc <___vfprintf_internal_r+0x42c>
   81b3c:	dc401e17 	ldw	r17,120(sp)
   81b40:	dac01417 	ldw	r11,80(sp)
   81b44:	da001317 	ldw	r8,76(sp)
   81b48:	da401217 	ldw	r9,72(sp)
   81b4c:	db401017 	ldw	r13,64(sp)
   81b50:	db800f17 	ldw	r14,60(sp)
   81b54:	9021883a 	mov	r16,r18
   81b58:	003c7b06 	br	80d48 <___vfprintf_internal_r+0x378>
   81b5c:	d9400417 	ldw	r5,16(sp)
   81b60:	d9000517 	ldw	r4,20(sp)
   81b64:	d9801c04 	addi	r6,sp,112
   81b68:	dac01315 	stw	r11,76(sp)
   81b6c:	da001215 	stw	r8,72(sp)
   81b70:	da401015 	stw	r9,64(sp)
   81b74:	db400f15 	stw	r13,60(sp)
   81b78:	0082f280 	call	82f28 <__sprint_r>
   81b7c:	103c9f1e 	bne	r2,zero,80dfc <___vfprintf_internal_r+0x42c>
   81b80:	dc401e17 	ldw	r17,120(sp)
   81b84:	dac01317 	ldw	r11,76(sp)
   81b88:	da001217 	ldw	r8,72(sp)
   81b8c:	da401017 	ldw	r9,64(sp)
   81b90:	db400f17 	ldw	r13,60(sp)
   81b94:	9021883a 	mov	r16,r18
   81b98:	003c7806 	br	80d7c <___vfprintf_internal_r+0x3ac>
   81b9c:	dd401617 	ldw	r21,88(sp)
   81ba0:	0541900e 	bge	zero,r21,821e4 <___vfprintf_internal_r+0x1814>
   81ba4:	d8800917 	ldw	r2,36(sp)
   81ba8:	d8c00817 	ldw	r3,32(sp)
   81bac:	102b883a 	mov	r21,r2
   81bb0:	1880cc16 	blt	r3,r2,81ee4 <___vfprintf_internal_r+0x1514>
   81bb4:	05400a0e 	bge	zero,r21,81be0 <___vfprintf_internal_r+0x1210>
   81bb8:	d8801d17 	ldw	r2,116(sp)
   81bbc:	8d63883a 	add	r17,r17,r21
   81bc0:	85800015 	stw	r22,0(r16)
   81bc4:	10800044 	addi	r2,r2,1
   81bc8:	d8801d15 	stw	r2,116(sp)
   81bcc:	85400115 	stw	r21,4(r16)
   81bd0:	dc401e15 	stw	r17,120(sp)
   81bd4:	10800208 	cmpgei	r2,r2,8
   81bd8:	10038a1e 	bne	r2,zero,82a04 <___vfprintf_internal_r+0x2034>
   81bdc:	84000204 	addi	r16,r16,8
   81be0:	a800cc16 	blt	r21,zero,81f14 <___vfprintf_internal_r+0x1544>
   81be4:	d8800817 	ldw	r2,32(sp)
   81be8:	156bc83a 	sub	r21,r2,r21
   81bec:	0540f716 	blt	zero,r21,81fcc <___vfprintf_internal_r+0x15fc>
   81bf0:	d8801617 	ldw	r2,88(sp)
   81bf4:	d8c00917 	ldw	r3,36(sp)
   81bf8:	10c0bd0e 	bge	r2,r3,81ef0 <___vfprintf_internal_r+0x1520>
   81bfc:	d8c00d17 	ldw	r3,52(sp)
   81c00:	d9000c17 	ldw	r4,48(sp)
   81c04:	80c00015 	stw	r3,0(r16)
   81c08:	d8c01d17 	ldw	r3,116(sp)
   81c0c:	8923883a 	add	r17,r17,r4
   81c10:	81000115 	stw	r4,4(r16)
   81c14:	18c00044 	addi	r3,r3,1
   81c18:	d8c01d15 	stw	r3,116(sp)
   81c1c:	dc401e15 	stw	r17,120(sp)
   81c20:	18c00208 	cmpgei	r3,r3,8
   81c24:	18035e1e 	bne	r3,zero,829a0 <___vfprintf_internal_r+0x1fd0>
   81c28:	84000204 	addi	r16,r16,8
   81c2c:	d8c00917 	ldw	r3,36(sp)
   81c30:	d9000817 	ldw	r4,32(sp)
   81c34:	1885c83a 	sub	r2,r3,r2
   81c38:	192bc83a 	sub	r21,r3,r4
   81c3c:	1540010e 	bge	r2,r21,81c44 <___vfprintf_internal_r+0x1274>
   81c40:	102b883a 	mov	r21,r2
   81c44:	05400c0e 	bge	zero,r21,81c78 <___vfprintf_internal_r+0x12a8>
   81c48:	d8c00817 	ldw	r3,32(sp)
   81c4c:	8d63883a 	add	r17,r17,r21
   81c50:	85400115 	stw	r21,4(r16)
   81c54:	b0ed883a 	add	r22,r22,r3
   81c58:	d8c01d17 	ldw	r3,116(sp)
   81c5c:	85800015 	stw	r22,0(r16)
   81c60:	dc401e15 	stw	r17,120(sp)
   81c64:	18c00044 	addi	r3,r3,1
   81c68:	d8c01d15 	stw	r3,116(sp)
   81c6c:	18c00208 	cmpgei	r3,r3,8
   81c70:	1803731e 	bne	r3,zero,82a40 <___vfprintf_internal_r+0x2070>
   81c74:	84000204 	addi	r16,r16,8
   81c78:	a800010e 	bge	r21,zero,81c80 <___vfprintf_internal_r+0x12b0>
   81c7c:	002b883a 	mov	r21,zero
   81c80:	156bc83a 	sub	r21,r2,r21
   81c84:	057c4d0e 	bge	zero,r21,80dbc <___vfprintf_internal_r+0x3ec>
   81c88:	030002b4 	movhi	r12,10
   81c8c:	a8c00450 	cmplti	r3,r21,17
   81c90:	d8801d17 	ldw	r2,116(sp)
   81c94:	63263f04 	addi	r12,r12,-26372
   81c98:	183f8a1e 	bne	r3,zero,81ac4 <___vfprintf_internal_r+0x10f4>
   81c9c:	8007883a 	mov	r3,r16
   81ca0:	8809883a 	mov	r4,r17
   81ca4:	a821883a 	mov	r16,r21
   81ca8:	df000517 	ldw	fp,20(sp)
   81cac:	a02b883a 	mov	r21,r20
   81cb0:	05800404 	movi	r22,16
   81cb4:	9829883a 	mov	r20,r19
   81cb8:	da000815 	stw	r8,32(sp)
   81cbc:	6023883a 	mov	r17,r12
   81cc0:	5827883a 	mov	r19,r11
   81cc4:	00000406 	br	81cd8 <___vfprintf_internal_r+0x1308>
   81cc8:	18c00204 	addi	r3,r3,8
   81ccc:	843ffc04 	addi	r16,r16,-16
   81cd0:	81400448 	cmpgei	r5,r16,17
   81cd4:	28033f26 	beq	r5,zero,829d4 <___vfprintf_internal_r+0x2004>
   81cd8:	10800044 	addi	r2,r2,1
   81cdc:	21000404 	addi	r4,r4,16
   81ce0:	1c400015 	stw	r17,0(r3)
   81ce4:	1d800115 	stw	r22,4(r3)
   81ce8:	d9001e15 	stw	r4,120(sp)
   81cec:	d8801d15 	stw	r2,116(sp)
   81cf0:	11400208 	cmpgei	r5,r2,8
   81cf4:	283ff426 	beq	r5,zero,81cc8 <___vfprintf_internal_r+0x12f8>
   81cf8:	d9400417 	ldw	r5,16(sp)
   81cfc:	d9801c04 	addi	r6,sp,112
   81d00:	e009883a 	mov	r4,fp
   81d04:	0082f280 	call	82f28 <__sprint_r>
   81d08:	103c3c1e 	bne	r2,zero,80dfc <___vfprintf_internal_r+0x42c>
   81d0c:	d9001e17 	ldw	r4,120(sp)
   81d10:	d8801d17 	ldw	r2,116(sp)
   81d14:	9007883a 	mov	r3,r18
   81d18:	003fec06 	br	81ccc <___vfprintf_internal_r+0x12fc>
   81d1c:	0039883a 	mov	fp,zero
   81d20:	902d883a 	mov	r22,r18
   81d24:	003cb206 	br	80ff0 <___vfprintf_internal_r+0x620>
   81d28:	b880004c 	andi	r2,r23,1
   81d2c:	103eee1e 	bne	r2,zero,818e8 <___vfprintf_internal_r+0xf18>
   81d30:	00800044 	movi	r2,1
   81d34:	80800115 	stw	r2,4(r16)
   81d38:	85800015 	stw	r22,0(r16)
   81d3c:	dc401e15 	stw	r17,120(sp)
   81d40:	dd401d15 	stw	r21,116(sp)
   81d44:	a8800210 	cmplti	r2,r21,8
   81d48:	103f0f1e 	bne	r2,zero,81988 <___vfprintf_internal_r+0xfb8>
   81d4c:	d9400417 	ldw	r5,16(sp)
   81d50:	d9000517 	ldw	r4,20(sp)
   81d54:	d9801c04 	addi	r6,sp,112
   81d58:	dac00f15 	stw	r11,60(sp)
   81d5c:	da000815 	stw	r8,32(sp)
   81d60:	0082f280 	call	82f28 <__sprint_r>
   81d64:	103c251e 	bne	r2,zero,80dfc <___vfprintf_internal_r+0x42c>
   81d68:	dc401e17 	ldw	r17,120(sp)
   81d6c:	dd401d17 	ldw	r21,116(sp)
   81d70:	dac00f17 	ldw	r11,60(sp)
   81d74:	da000817 	ldw	r8,32(sp)
   81d78:	9039883a 	mov	fp,r18
   81d7c:	003f0206 	br	81988 <___vfprintf_internal_r+0xfb8>
   81d80:	d8800917 	ldw	r2,36(sp)
   81d84:	10800090 	cmplti	r2,r2,2
   81d88:	103eff1e 	bne	r2,zero,81988 <___vfprintf_internal_r+0xfb8>
   81d8c:	d8800917 	ldw	r2,36(sp)
   81d90:	030002b4 	movhi	r12,10
   81d94:	63263f04 	addi	r12,r12,-26372
   81d98:	10800490 	cmplti	r2,r2,18
   81d9c:	10020e1e 	bne	r2,zero,825d8 <___vfprintf_internal_r+0x1c08>
   81da0:	8809883a 	mov	r4,r17
   81da4:	a805883a 	mov	r2,r21
   81da8:	e007883a 	mov	r3,fp
   81dac:	982b883a 	mov	r21,r19
   81db0:	a039883a 	mov	fp,r20
   81db4:	05800404 	movi	r22,16
   81db8:	4027883a 	mov	r19,r8
   81dbc:	6023883a 	mov	r17,r12
   81dc0:	5829883a 	mov	r20,r11
   81dc4:	00000406 	br	81dd8 <___vfprintf_internal_r+0x1408>
   81dc8:	18c00204 	addi	r3,r3,8
   81dcc:	843ffc04 	addi	r16,r16,-16
   81dd0:	81400448 	cmpgei	r5,r16,17
   81dd4:	2801f826 	beq	r5,zero,825b8 <___vfprintf_internal_r+0x1be8>
   81dd8:	10800044 	addi	r2,r2,1
   81ddc:	21000404 	addi	r4,r4,16
   81de0:	1c400015 	stw	r17,0(r3)
   81de4:	1d800115 	stw	r22,4(r3)
   81de8:	d9001e15 	stw	r4,120(sp)
   81dec:	d8801d15 	stw	r2,116(sp)
   81df0:	11400208 	cmpgei	r5,r2,8
   81df4:	283ff426 	beq	r5,zero,81dc8 <___vfprintf_internal_r+0x13f8>
   81df8:	d9400417 	ldw	r5,16(sp)
   81dfc:	d9000517 	ldw	r4,20(sp)
   81e00:	d9801c04 	addi	r6,sp,112
   81e04:	0082f280 	call	82f28 <__sprint_r>
   81e08:	103bfc1e 	bne	r2,zero,80dfc <___vfprintf_internal_r+0x42c>
   81e0c:	d9001e17 	ldw	r4,120(sp)
   81e10:	d8801d17 	ldw	r2,116(sp)
   81e14:	9007883a 	mov	r3,r18
   81e18:	003fec06 	br	81dcc <___vfprintf_internal_r+0x13fc>
   81e1c:	d9400417 	ldw	r5,16(sp)
   81e20:	d9000517 	ldw	r4,20(sp)
   81e24:	d9801c04 	addi	r6,sp,112
   81e28:	dac01215 	stw	r11,72(sp)
   81e2c:	da001015 	stw	r8,64(sp)
   81e30:	da400f15 	stw	r9,60(sp)
   81e34:	0082f280 	call	82f28 <__sprint_r>
   81e38:	103bf01e 	bne	r2,zero,80dfc <___vfprintf_internal_r+0x42c>
   81e3c:	dc401e17 	ldw	r17,120(sp)
   81e40:	dac01217 	ldw	r11,72(sp)
   81e44:	da001017 	ldw	r8,64(sp)
   81e48:	da400f17 	ldw	r9,60(sp)
   81e4c:	9021883a 	mov	r16,r18
   81e50:	003bce06 	br	80d8c <___vfprintf_internal_r+0x3bc>
   81e54:	d9400417 	ldw	r5,16(sp)
   81e58:	d9000517 	ldw	r4,20(sp)
   81e5c:	d9801c04 	addi	r6,sp,112
   81e60:	dac00f15 	stw	r11,60(sp)
   81e64:	da000815 	stw	r8,32(sp)
   81e68:	0082f280 	call	82f28 <__sprint_r>
   81e6c:	103be31e 	bne	r2,zero,80dfc <___vfprintf_internal_r+0x42c>
   81e70:	dc401e17 	ldw	r17,120(sp)
   81e74:	dac00f17 	ldw	r11,60(sp)
   81e78:	da000817 	ldw	r8,32(sp)
   81e7c:	9021883a 	mov	r16,r18
   81e80:	003bce06 	br	80dbc <___vfprintf_internal_r+0x3ec>
   81e84:	b880004c 	andi	r2,r23,1
   81e88:	103bcc26 	beq	r2,zero,80dbc <___vfprintf_internal_r+0x3ec>
   81e8c:	003dcc06 	br	815c0 <___vfprintf_internal_r+0xbf0>
   81e90:	63000414 	ori	r12,r12,16
   81e94:	003b1d06 	br	80b0c <___vfprintf_internal_r+0x13c>
   81e98:	9a400007 	ldb	r9,0(r19)
   81e9c:	d8800715 	stw	r2,28(sp)
   81ea0:	003b1a06 	br	80b0c <___vfprintf_internal_r+0x13c>
   81ea4:	902d883a 	mov	r22,r18
   81ea8:	003c5106 	br	80ff0 <___vfprintf_internal_r+0x620>
   81eac:	18800017 	ldw	r2,0(r3)
   81eb0:	d8800a15 	stw	r2,40(sp)
   81eb4:	18800117 	ldw	r2,4(r3)
   81eb8:	d8800b15 	stw	r2,44(sp)
   81ebc:	003cb506 	br	81194 <___vfprintf_internal_r+0x7c4>
   81ec0:	6080040c 	andi	r2,r12,16
   81ec4:	10008d1e 	bne	r2,zero,820fc <___vfprintf_internal_r+0x172c>
   81ec8:	6300100c 	andi	r12,r12,64
   81ecc:	60008b26 	beq	r12,zero,820fc <___vfprintf_internal_r+0x172c>
   81ed0:	d8800717 	ldw	r2,28(sp)
   81ed4:	d8c00617 	ldw	r3,24(sp)
   81ed8:	10800017 	ldw	r2,0(r2)
   81edc:	10c0000d 	sth	r3,0(r2)
   81ee0:	003d9706 	br	81540 <___vfprintf_internal_r+0xb70>
   81ee4:	182b883a 	mov	r21,r3
   81ee8:	057f3316 	blt	zero,r21,81bb8 <___vfprintf_internal_r+0x11e8>
   81eec:	003f3c06 	br	81be0 <___vfprintf_internal_r+0x1210>
   81ef0:	b8c0004c 	andi	r3,r23,1
   81ef4:	183f411e 	bne	r3,zero,81bfc <___vfprintf_internal_r+0x122c>
   81ef8:	d8c00917 	ldw	r3,36(sp)
   81efc:	d9000817 	ldw	r4,32(sp)
   81f00:	1885c83a 	sub	r2,r3,r2
   81f04:	192bc83a 	sub	r21,r3,r4
   81f08:	157f5b0e 	bge	r2,r21,81c78 <___vfprintf_internal_r+0x12a8>
   81f0c:	102b883a 	mov	r21,r2
   81f10:	003f5906 	br	81c78 <___vfprintf_internal_r+0x12a8>
   81f14:	002b883a 	mov	r21,zero
   81f18:	003f3206 	br	81be4 <___vfprintf_internal_r+0x1214>
   81f1c:	d9400417 	ldw	r5,16(sp)
   81f20:	d9000517 	ldw	r4,20(sp)
   81f24:	d9801c04 	addi	r6,sp,112
   81f28:	dac00f15 	stw	r11,60(sp)
   81f2c:	da000815 	stw	r8,32(sp)
   81f30:	0082f280 	call	82f28 <__sprint_r>
   81f34:	103bb11e 	bne	r2,zero,80dfc <___vfprintf_internal_r+0x42c>
   81f38:	dc401e17 	ldw	r17,120(sp)
   81f3c:	dac00f17 	ldw	r11,60(sp)
   81f40:	da000817 	ldw	r8,32(sp)
   81f44:	9021883a 	mov	r16,r18
   81f48:	003da906 	br	815f0 <___vfprintf_internal_r+0xc20>
   81f4c:	008002b4 	movhi	r2,10
   81f50:	10a63204 	addi	r2,r2,-26424
   81f54:	d8800e15 	stw	r2,56(sp)
   81f58:	6080080c 	andi	r2,r12,32
   81f5c:	10007926 	beq	r2,zero,82144 <___vfprintf_internal_r+0x1774>
   81f60:	d8800717 	ldw	r2,28(sp)
   81f64:	14400017 	ldw	r17,0(r2)
   81f68:	17000117 	ldw	fp,4(r2)
   81f6c:	10800204 	addi	r2,r2,8
   81f70:	d8800715 	stw	r2,28(sp)
   81f74:	6080004c 	andi	r2,r12,1
   81f78:	10007026 	beq	r2,zero,8213c <___vfprintf_internal_r+0x176c>
   81f7c:	8f04b03a 	or	r2,r17,fp
   81f80:	10006e26 	beq	r2,zero,8213c <___vfprintf_internal_r+0x176c>
   81f84:	00800c04 	movi	r2,48
   81f88:	d8801585 	stb	r2,86(sp)
   81f8c:	da4015c5 	stb	r9,87(sp)
   81f90:	63000094 	ori	r12,r12,2
   81f94:	00800084 	movi	r2,2
   81f98:	003bf206 	br	80f64 <___vfprintf_internal_r+0x594>
   81f9c:	008002b4 	movhi	r2,10
   81fa0:	10a63704 	addi	r2,r2,-26404
   81fa4:	d8800e15 	stw	r2,56(sp)
   81fa8:	003feb06 	br	81f58 <___vfprintf_internal_r+0x1588>
   81fac:	a88001f0 	cmpltui	r2,r21,7
   81fb0:	a839883a 	mov	fp,r21
   81fb4:	1001b926 	beq	r2,zero,8269c <___vfprintf_internal_r+0x1ccc>
   81fb8:	058002b4 	movhi	r22,10
   81fbc:	e017883a 	mov	r11,fp
   81fc0:	ddc00715 	stw	r23,28(sp)
   81fc4:	b5a63c04 	addi	r22,r22,-26384
   81fc8:	003b4606 	br	80ce4 <___vfprintf_internal_r+0x314>
   81fcc:	030002b4 	movhi	r12,10
   81fd0:	a8c00450 	cmplti	r3,r21,17
   81fd4:	d8801d17 	ldw	r2,116(sp)
   81fd8:	63263f04 	addi	r12,r12,-26372
   81fdc:	1801901e 	bne	r3,zero,82620 <___vfprintf_internal_r+0x1c50>
   81fe0:	8007883a 	mov	r3,r16
   81fe4:	8809883a 	mov	r4,r17
   81fe8:	a821883a 	mov	r16,r21
   81fec:	07000404 	movi	fp,16
   81ff0:	a02b883a 	mov	r21,r20
   81ff4:	da000f15 	stw	r8,60(sp)
   81ff8:	9829883a 	mov	r20,r19
   81ffc:	6023883a 	mov	r17,r12
   82000:	5827883a 	mov	r19,r11
   82004:	00000406 	br	82018 <___vfprintf_internal_r+0x1648>
   82008:	18c00204 	addi	r3,r3,8
   8200c:	843ffc04 	addi	r16,r16,-16
   82010:	81400448 	cmpgei	r5,r16,17
   82014:	28017a26 	beq	r5,zero,82600 <___vfprintf_internal_r+0x1c30>
   82018:	10800044 	addi	r2,r2,1
   8201c:	21000404 	addi	r4,r4,16
   82020:	1c400015 	stw	r17,0(r3)
   82024:	1f000115 	stw	fp,4(r3)
   82028:	d9001e15 	stw	r4,120(sp)
   8202c:	d8801d15 	stw	r2,116(sp)
   82030:	11400208 	cmpgei	r5,r2,8
   82034:	283ff426 	beq	r5,zero,82008 <___vfprintf_internal_r+0x1638>
   82038:	d9400417 	ldw	r5,16(sp)
   8203c:	d9000517 	ldw	r4,20(sp)
   82040:	d9801c04 	addi	r6,sp,112
   82044:	0082f280 	call	82f28 <__sprint_r>
   82048:	103b6c1e 	bne	r2,zero,80dfc <___vfprintf_internal_r+0x42c>
   8204c:	d9001e17 	ldw	r4,120(sp)
   82050:	d8801d17 	ldw	r2,116(sp)
   82054:	9007883a 	mov	r3,r18
   82058:	003fec06 	br	8200c <___vfprintf_internal_r+0x163c>
   8205c:	dc001015 	stw	r16,64(sp)
   82060:	982d883a 	mov	r22,r19
   82064:	482f883a 	mov	r23,r9
   82068:	e027883a 	mov	r19,fp
   8206c:	db000815 	stw	r12,32(sp)
   82070:	a039883a 	mov	fp,r20
   82074:	da000f15 	stw	r8,60(sp)
   82078:	9021883a 	mov	r16,r18
   8207c:	2029883a 	mov	r20,r4
   82080:	8809883a 	mov	r4,r17
   82084:	980b883a 	mov	r5,r19
   82088:	01800284 	movi	r6,10
   8208c:	000f883a 	mov	r7,zero
   82090:	0093f900 	call	93f90 <__umoddi3>
   82094:	10800c04 	addi	r2,r2,48
   82098:	8809883a 	mov	r4,r17
   8209c:	980b883a 	mov	r5,r19
   820a0:	01800284 	movi	r6,10
   820a4:	000f883a 	mov	r7,zero
   820a8:	80bfffc5 	stb	r2,-1(r16)
   820ac:	00939b80 	call	939b8 <__udivdi3>
   820b0:	980d883a 	mov	r6,r19
   820b4:	880f883a 	mov	r7,r17
   820b8:	843fffc4 	addi	r16,r16,-1
   820bc:	1023883a 	mov	r17,r2
   820c0:	1827883a 	mov	r19,r3
   820c4:	303fee1e 	bne	r6,zero,82080 <___vfprintf_internal_r+0x16b0>
   820c8:	39c002a8 	cmpgeui	r7,r7,10
   820cc:	383fec1e 	bne	r7,zero,82080 <___vfprintf_internal_r+0x16b0>
   820d0:	db000817 	ldw	r12,32(sp)
   820d4:	b027883a 	mov	r19,r22
   820d8:	802d883a 	mov	r22,r16
   820dc:	b813883a 	mov	r9,r23
   820e0:	a009883a 	mov	r4,r20
   820e4:	da000f17 	ldw	r8,60(sp)
   820e8:	e029883a 	mov	r20,fp
   820ec:	dc001017 	ldw	r16,64(sp)
   820f0:	95b9c83a 	sub	fp,r18,r22
   820f4:	602f883a 	mov	r23,r12
   820f8:	003bbd06 	br	80ff0 <___vfprintf_internal_r+0x620>
   820fc:	d8800717 	ldw	r2,28(sp)
   82100:	d8c00617 	ldw	r3,24(sp)
   82104:	10800017 	ldw	r2,0(r2)
   82108:	10c00015 	stw	r3,0(r2)
   8210c:	003d0c06 	br	81540 <___vfprintf_internal_r+0xb70>
   82110:	b009883a 	mov	r4,r22
   82114:	00809380 	call	80938 <strlen>
   82118:	d9001543 	ldbu	r4,85(sp)
   8211c:	da400717 	ldw	r9,28(sp)
   82120:	db000817 	ldw	r12,32(sp)
   82124:	da000f17 	ldw	r8,60(sp)
   82128:	1039883a 	mov	fp,r2
   8212c:	1017883a 	mov	r11,r2
   82130:	103ce50e 	bge	r2,zero,814c8 <___vfprintf_internal_r+0xaf8>
   82134:	0017883a 	mov	r11,zero
   82138:	003ce306 	br	814c8 <___vfprintf_internal_r+0xaf8>
   8213c:	00800084 	movi	r2,2
   82140:	003b8806 	br	80f64 <___vfprintf_internal_r+0x594>
   82144:	d8c00717 	ldw	r3,28(sp)
   82148:	6080040c 	andi	r2,r12,16
   8214c:	1c400017 	ldw	r17,0(r3)
   82150:	1dc00104 	addi	r23,r3,4
   82154:	1000061e 	bne	r2,zero,82170 <___vfprintf_internal_r+0x17a0>
   82158:	6080100c 	andi	r2,r12,64
   8215c:	10000426 	beq	r2,zero,82170 <___vfprintf_internal_r+0x17a0>
   82160:	8c7fffcc 	andi	r17,r17,65535
   82164:	0039883a 	mov	fp,zero
   82168:	ddc00715 	stw	r23,28(sp)
   8216c:	003f8106 	br	81f74 <___vfprintf_internal_r+0x15a4>
   82170:	0039883a 	mov	fp,zero
   82174:	ddc00715 	stw	r23,28(sp)
   82178:	003f7e06 	br	81f74 <___vfprintf_internal_r+0x15a4>
   8217c:	d9400417 	ldw	r5,16(sp)
   82180:	d9000517 	ldw	r4,20(sp)
   82184:	d9801c04 	addi	r6,sp,112
   82188:	dac00f15 	stw	r11,60(sp)
   8218c:	da000815 	stw	r8,32(sp)
   82190:	0082f280 	call	82f28 <__sprint_r>
   82194:	103b191e 	bne	r2,zero,80dfc <___vfprintf_internal_r+0x42c>
   82198:	dc401e17 	ldw	r17,120(sp)
   8219c:	dd401d17 	ldw	r21,116(sp)
   821a0:	dac00f17 	ldw	r11,60(sp)
   821a4:	da000817 	ldw	r8,32(sp)
   821a8:	9039883a 	mov	fp,r18
   821ac:	003dd506 	br	81904 <___vfprintf_internal_r+0xf34>
   821b0:	d9400417 	ldw	r5,16(sp)
   821b4:	d9000517 	ldw	r4,20(sp)
   821b8:	d9801c04 	addi	r6,sp,112
   821bc:	dac00f15 	stw	r11,60(sp)
   821c0:	da000815 	stw	r8,32(sp)
   821c4:	0082f280 	call	82f28 <__sprint_r>
   821c8:	103b0c1e 	bne	r2,zero,80dfc <___vfprintf_internal_r+0x42c>
   821cc:	dc401e17 	ldw	r17,120(sp)
   821d0:	dd401d17 	ldw	r21,116(sp)
   821d4:	dac00f17 	ldw	r11,60(sp)
   821d8:	da000817 	ldw	r8,32(sp)
   821dc:	9039883a 	mov	fp,r18
   821e0:	003dd306 	br	81930 <___vfprintf_internal_r+0xf60>
   821e4:	d8801d17 	ldw	r2,116(sp)
   821e8:	00c002b4 	movhi	r3,10
   821ec:	18e63e04 	addi	r3,r3,-26376
   821f0:	10800044 	addi	r2,r2,1
   821f4:	8c400044 	addi	r17,r17,1
   821f8:	80c00015 	stw	r3,0(r16)
   821fc:	00c00044 	movi	r3,1
   82200:	d8801d15 	stw	r2,116(sp)
   82204:	80c00115 	stw	r3,4(r16)
   82208:	dc401e15 	stw	r17,120(sp)
   8220c:	10800208 	cmpgei	r2,r2,8
   82210:	1001151e 	bne	r2,zero,82668 <___vfprintf_internal_r+0x1c98>
   82214:	84000204 	addi	r16,r16,8
   82218:	a800b91e 	bne	r21,zero,82500 <___vfprintf_internal_r+0x1b30>
   8221c:	d8c00917 	ldw	r3,36(sp)
   82220:	b880004c 	andi	r2,r23,1
   82224:	10c4b03a 	or	r2,r2,r3
   82228:	103ae426 	beq	r2,zero,80dbc <___vfprintf_internal_r+0x3ec>
   8222c:	d8800d17 	ldw	r2,52(sp)
   82230:	d8c00c17 	ldw	r3,48(sp)
   82234:	80800015 	stw	r2,0(r16)
   82238:	d8801d17 	ldw	r2,116(sp)
   8223c:	1c63883a 	add	r17,r3,r17
   82240:	80c00115 	stw	r3,4(r16)
   82244:	10800044 	addi	r2,r2,1
   82248:	dc401e15 	stw	r17,120(sp)
   8224c:	d8801d15 	stw	r2,116(sp)
   82250:	10c00208 	cmpgei	r3,r2,8
   82254:	1801181e 	bne	r3,zero,826b8 <___vfprintf_internal_r+0x1ce8>
   82258:	84000204 	addi	r16,r16,8
   8225c:	d8c00917 	ldw	r3,36(sp)
   82260:	10800044 	addi	r2,r2,1
   82264:	d8801d15 	stw	r2,116(sp)
   82268:	1c63883a 	add	r17,r3,r17
   8226c:	85800015 	stw	r22,0(r16)
   82270:	80c00115 	stw	r3,4(r16)
   82274:	dc401e15 	stw	r17,120(sp)
   82278:	10800208 	cmpgei	r2,r2,8
   8227c:	103ace26 	beq	r2,zero,80db8 <___vfprintf_internal_r+0x3e8>
   82280:	003e1806 	br	81ae4 <___vfprintf_internal_r+0x1114>
   82284:	d9400417 	ldw	r5,16(sp)
   82288:	d9000517 	ldw	r4,20(sp)
   8228c:	d9801c04 	addi	r6,sp,112
   82290:	dac01415 	stw	r11,80(sp)
   82294:	da001315 	stw	r8,76(sp)
   82298:	da401215 	stw	r9,72(sp)
   8229c:	db401015 	stw	r13,64(sp)
   822a0:	db800f15 	stw	r14,60(sp)
   822a4:	0082f280 	call	82f28 <__sprint_r>
   822a8:	103ad41e 	bne	r2,zero,80dfc <___vfprintf_internal_r+0x42c>
   822ac:	dc401e17 	ldw	r17,120(sp)
   822b0:	dac01417 	ldw	r11,80(sp)
   822b4:	da001317 	ldw	r8,76(sp)
   822b8:	da401217 	ldw	r9,72(sp)
   822bc:	db401017 	ldw	r13,64(sp)
   822c0:	db800f17 	ldw	r14,60(sp)
   822c4:	9021883a 	mov	r16,r18
   822c8:	003a9106 	br	80d10 <___vfprintf_internal_r+0x340>
   822cc:	d9000a17 	ldw	r4,40(sp)
   822d0:	d9400b17 	ldw	r5,44(sp)
   822d4:	da000f15 	stw	r8,60(sp)
   822d8:	200d883a 	mov	r6,r4
   822dc:	280f883a 	mov	r7,r5
   822e0:	db000815 	stw	r12,32(sp)
   822e4:	da400715 	stw	r9,28(sp)
   822e8:	0096c4c0 	call	96c4c <__unorddf2>
   822ec:	da400717 	ldw	r9,28(sp)
   822f0:	db000817 	ldw	r12,32(sp)
   822f4:	da000f17 	ldw	r8,60(sp)
   822f8:	1002421e 	bne	r2,zero,82c04 <___vfprintf_internal_r+0x2234>
   822fc:	00fff7c4 	movi	r3,-33
   82300:	48c6703a 	and	r3,r9,r3
   82304:	a8bfffe0 	cmpeqi	r2,r21,-1
   82308:	d8c00815 	stw	r3,32(sp)
   8230c:	1001ca1e 	bne	r2,zero,82a38 <___vfprintf_internal_r+0x2068>
   82310:	188011d8 	cmpnei	r2,r3,71
   82314:	1001b826 	beq	r2,zero,829f8 <___vfprintf_internal_r+0x2028>
   82318:	d8800b17 	ldw	r2,44(sp)
   8231c:	65c04014 	ori	r23,r12,256
   82320:	1000cd16 	blt	r2,zero,82658 <___vfprintf_internal_r+0x1c88>
   82324:	dc400b17 	ldw	r17,44(sp)
   82328:	d8000705 	stb	zero,28(sp)
   8232c:	488019a0 	cmpeqi	r2,r9,102
   82330:	d8800f15 	stw	r2,60(sp)
   82334:	1001721e 	bne	r2,zero,82900 <___vfprintf_internal_r+0x1f30>
   82338:	d8800817 	ldw	r2,32(sp)
   8233c:	10801158 	cmpnei	r2,r2,69
   82340:	1000ec26 	beq	r2,zero,826f4 <___vfprintf_internal_r+0x1d24>
   82344:	d8801a04 	addi	r2,sp,104
   82348:	d8800315 	stw	r2,12(sp)
   8234c:	d9400a17 	ldw	r5,40(sp)
   82350:	d8801704 	addi	r2,sp,92
   82354:	d9000517 	ldw	r4,20(sp)
   82358:	d8800215 	stw	r2,8(sp)
   8235c:	d8801604 	addi	r2,sp,88
   82360:	d8800115 	stw	r2,4(sp)
   82364:	dd400015 	stw	r21,0(sp)
   82368:	01c00084 	movi	r7,2
   8236c:	880d883a 	mov	r6,r17
   82370:	da001315 	stw	r8,76(sp)
   82374:	db001215 	stw	r12,72(sp)
   82378:	da400915 	stw	r9,36(sp)
   8237c:	00880780 	call	88078 <_dtoa_r>
   82380:	da400917 	ldw	r9,36(sp)
   82384:	db001217 	ldw	r12,72(sp)
   82388:	da001317 	ldw	r8,76(sp)
   8238c:	48c019e0 	cmpeqi	r3,r9,103
   82390:	102d883a 	mov	r22,r2
   82394:	1800ff26 	beq	r3,zero,82794 <___vfprintf_internal_r+0x1dc4>
   82398:	6080004c 	andi	r2,r12,1
   8239c:	1000ff26 	beq	r2,zero,8279c <___vfprintf_internal_r+0x1dcc>
   823a0:	b579883a 	add	fp,r22,r21
   823a4:	d9000a17 	ldw	r4,40(sp)
   823a8:	000d883a 	mov	r6,zero
   823ac:	000f883a 	mov	r7,zero
   823b0:	880b883a 	mov	r5,r17
   823b4:	da001315 	stw	r8,76(sp)
   823b8:	db001215 	stw	r12,72(sp)
   823bc:	da400915 	stw	r9,36(sp)
   823c0:	00958200 	call	95820 <__eqdf2>
   823c4:	da400917 	ldw	r9,36(sp)
   823c8:	db001217 	ldw	r12,72(sp)
   823cc:	da001317 	ldw	r8,76(sp)
   823d0:	10023126 	beq	r2,zero,82c98 <___vfprintf_internal_r+0x22c8>
   823d4:	d8801a17 	ldw	r2,104(sp)
   823d8:	1700062e 	bgeu	r2,fp,823f4 <___vfprintf_internal_r+0x1a24>
   823dc:	01000c04 	movi	r4,48
   823e0:	10c00044 	addi	r3,r2,1
   823e4:	d8c01a15 	stw	r3,104(sp)
   823e8:	11000005 	stb	r4,0(r2)
   823ec:	d8801a17 	ldw	r2,104(sp)
   823f0:	173ffb36 	bltu	r2,fp,823e0 <___vfprintf_internal_r+0x1a10>
   823f4:	d8c00817 	ldw	r3,32(sp)
   823f8:	d9c01617 	ldw	r7,88(sp)
   823fc:	1585c83a 	sub	r2,r2,r22
   82400:	18c011d8 	cmpnei	r3,r3,71
   82404:	d8800915 	stw	r2,36(sp)
   82408:	d9c00815 	stw	r7,32(sp)
   8240c:	1800e726 	beq	r3,zero,827ac <___vfprintf_internal_r+0x1ddc>
   82410:	d8800f17 	ldw	r2,60(sp)
   82414:	10021a26 	beq	r2,zero,82c80 <___vfprintf_internal_r+0x22b0>
   82418:	d8c00817 	ldw	r3,32(sp)
   8241c:	6080004c 	andi	r2,r12,1
   82420:	1544b03a 	or	r2,r2,r21
   82424:	00c23a0e 	bge	zero,r3,82d10 <___vfprintf_internal_r+0x2340>
   82428:	10021f1e 	bne	r2,zero,82ca8 <___vfprintf_internal_r+0x22d8>
   8242c:	df000817 	ldw	fp,32(sp)
   82430:	e017883a 	mov	r11,fp
   82434:	02401984 	movi	r9,102
   82438:	d8800707 	ldb	r2,28(sp)
   8243c:	10012b26 	beq	r2,zero,828ec <___vfprintf_internal_r+0x1f1c>
   82440:	00800b44 	movi	r2,45
   82444:	d8801545 	stb	r2,85(sp)
   82448:	d8801017 	ldw	r2,64(sp)
   8244c:	002b883a 	mov	r21,zero
   82450:	d8800715 	stw	r2,28(sp)
   82454:	003aee06 	br	81010 <___vfprintf_internal_r+0x640>
   82458:	d9400417 	ldw	r5,16(sp)
   8245c:	d9000517 	ldw	r4,20(sp)
   82460:	d9801c04 	addi	r6,sp,112
   82464:	dac00f15 	stw	r11,60(sp)
   82468:	da000815 	stw	r8,32(sp)
   8246c:	0082f280 	call	82f28 <__sprint_r>
   82470:	103a621e 	bne	r2,zero,80dfc <___vfprintf_internal_r+0x42c>
   82474:	dc401e17 	ldw	r17,120(sp)
   82478:	dac00f17 	ldw	r11,60(sp)
   8247c:	da000817 	ldw	r8,32(sp)
   82480:	9021883a 	mov	r16,r18
   82484:	003c4b06 	br	815b4 <___vfprintf_internal_r+0xbe4>
   82488:	d9400417 	ldw	r5,16(sp)
   8248c:	d9000517 	ldw	r4,20(sp)
   82490:	d9801c04 	addi	r6,sp,112
   82494:	dac00f15 	stw	r11,60(sp)
   82498:	da000815 	stw	r8,32(sp)
   8249c:	0082f280 	call	82f28 <__sprint_r>
   824a0:	103a561e 	bne	r2,zero,80dfc <___vfprintf_internal_r+0x42c>
   824a4:	dc401e17 	ldw	r17,120(sp)
   824a8:	dd401d17 	ldw	r21,116(sp)
   824ac:	da000817 	ldw	r8,32(sp)
   824b0:	dac00f17 	ldw	r11,60(sp)
   824b4:	9039883a 	mov	fp,r18
   824b8:	003d3306 	br	81988 <___vfprintf_internal_r+0xfb8>
   824bc:	d9000517 	ldw	r4,20(sp)
   824c0:	00864140 	call	86414 <__sinit>
   824c4:	00395b06 	br	80a34 <___vfprintf_internal_r+0x64>
   824c8:	d9400417 	ldw	r5,16(sp)
   824cc:	d9000517 	ldw	r4,20(sp)
   824d0:	d9801c04 	addi	r6,sp,112
   824d4:	dac01215 	stw	r11,72(sp)
   824d8:	da001015 	stw	r8,64(sp)
   824dc:	da400f15 	stw	r9,60(sp)
   824e0:	0082f280 	call	82f28 <__sprint_r>
   824e4:	103a451e 	bne	r2,zero,80dfc <___vfprintf_internal_r+0x42c>
   824e8:	dc401e17 	ldw	r17,120(sp)
   824ec:	dac01217 	ldw	r11,72(sp)
   824f0:	da001017 	ldw	r8,64(sp)
   824f4:	da400f17 	ldw	r9,60(sp)
   824f8:	9021883a 	mov	r16,r18
   824fc:	003a2106 	br	80d84 <___vfprintf_internal_r+0x3b4>
   82500:	d8800d17 	ldw	r2,52(sp)
   82504:	d8c00c17 	ldw	r3,48(sp)
   82508:	80800015 	stw	r2,0(r16)
   8250c:	d8801d17 	ldw	r2,116(sp)
   82510:	1c63883a 	add	r17,r3,r17
   82514:	80c00115 	stw	r3,4(r16)
   82518:	10800044 	addi	r2,r2,1
   8251c:	dc401e15 	stw	r17,120(sp)
   82520:	d8801d15 	stw	r2,116(sp)
   82524:	10c00208 	cmpgei	r3,r2,8
   82528:	1800631e 	bne	r3,zero,826b8 <___vfprintf_internal_r+0x1ce8>
   8252c:	84000204 	addi	r16,r16,8
   82530:	a83f4a0e 	bge	r21,zero,8225c <___vfprintf_internal_r+0x188c>
   82534:	030002b4 	movhi	r12,10
   82538:	a8fffc08 	cmpgei	r3,r21,-16
   8253c:	63263f04 	addi	r12,r12,-26372
   82540:	056bc83a 	sub	r21,zero,r21
   82544:	1801881e 	bne	r3,zero,82b68 <___vfprintf_internal_r+0x2198>
   82548:	8007883a 	mov	r3,r16
   8254c:	8809883a 	mov	r4,r17
   82550:	07000404 	movi	fp,16
   82554:	da000815 	stw	r8,32(sp)
   82558:	5823883a 	mov	r17,r11
   8255c:	6021883a 	mov	r16,r12
   82560:	00000406 	br	82574 <___vfprintf_internal_r+0x1ba4>
   82564:	18c00204 	addi	r3,r3,8
   82568:	ad7ffc04 	addi	r21,r21,-16
   8256c:	a9400448 	cmpgei	r5,r21,17
   82570:	28017826 	beq	r5,zero,82b54 <___vfprintf_internal_r+0x2184>
   82574:	10800044 	addi	r2,r2,1
   82578:	21000404 	addi	r4,r4,16
   8257c:	1c000015 	stw	r16,0(r3)
   82580:	1f000115 	stw	fp,4(r3)
   82584:	d9001e15 	stw	r4,120(sp)
   82588:	d8801d15 	stw	r2,116(sp)
   8258c:	11400208 	cmpgei	r5,r2,8
   82590:	283ff426 	beq	r5,zero,82564 <___vfprintf_internal_r+0x1b94>
   82594:	d9400417 	ldw	r5,16(sp)
   82598:	d9000517 	ldw	r4,20(sp)
   8259c:	d9801c04 	addi	r6,sp,112
   825a0:	0082f280 	call	82f28 <__sprint_r>
   825a4:	103a151e 	bne	r2,zero,80dfc <___vfprintf_internal_r+0x42c>
   825a8:	d9001e17 	ldw	r4,120(sp)
   825ac:	d8801d17 	ldw	r2,116(sp)
   825b0:	9007883a 	mov	r3,r18
   825b4:	003fec06 	br	82568 <___vfprintf_internal_r+0x1b98>
   825b8:	9811883a 	mov	r8,r19
   825bc:	a017883a 	mov	r11,r20
   825c0:	a827883a 	mov	r19,r21
   825c4:	8819883a 	mov	r12,r17
   825c8:	e029883a 	mov	r20,fp
   825cc:	102b883a 	mov	r21,r2
   825d0:	2023883a 	mov	r17,r4
   825d4:	1839883a 	mov	fp,r3
   825d8:	ad400044 	addi	r21,r21,1
   825dc:	8c23883a 	add	r17,r17,r16
   825e0:	e3000015 	stw	r12,0(fp)
   825e4:	003ce206 	br	81970 <___vfprintf_internal_r+0xfa0>
   825e8:	058002b4 	movhi	r22,10
   825ec:	b5a62e04 	addi	r22,r22,-26440
   825f0:	003b1206 	br	8123c <___vfprintf_internal_r+0x86c>
   825f4:	030002b4 	movhi	r12,10
   825f8:	63263f04 	addi	r12,r12,-26372
   825fc:	003c8c06 	br	81830 <___vfprintf_internal_r+0xe60>
   82600:	da000f17 	ldw	r8,60(sp)
   82604:	9817883a 	mov	r11,r19
   82608:	8819883a 	mov	r12,r17
   8260c:	a027883a 	mov	r19,r20
   82610:	2023883a 	mov	r17,r4
   82614:	a829883a 	mov	r20,r21
   82618:	802b883a 	mov	r21,r16
   8261c:	1821883a 	mov	r16,r3
   82620:	10800044 	addi	r2,r2,1
   82624:	8d63883a 	add	r17,r17,r21
   82628:	d8801d15 	stw	r2,116(sp)
   8262c:	83000015 	stw	r12,0(r16)
   82630:	85400115 	stw	r21,4(r16)
   82634:	dc401e15 	stw	r17,120(sp)
   82638:	10800208 	cmpgei	r2,r2,8
   8263c:	1000491e 	bne	r2,zero,82764 <___vfprintf_internal_r+0x1d94>
   82640:	84000204 	addi	r16,r16,8
   82644:	003d6a06 	br	81bf0 <___vfprintf_internal_r+0x1220>
   82648:	00800b44 	movi	r2,45
   8264c:	d8801545 	stb	r2,85(sp)
   82650:	01000b44 	movi	r4,45
   82654:	003af506 	br	8122c <___vfprintf_internal_r+0x85c>
   82658:	1460003c 	xorhi	r17,r2,32768
   8265c:	00800b44 	movi	r2,45
   82660:	d8800705 	stb	r2,28(sp)
   82664:	003f3106 	br	8232c <___vfprintf_internal_r+0x195c>
   82668:	d9400417 	ldw	r5,16(sp)
   8266c:	d9000517 	ldw	r4,20(sp)
   82670:	d9801c04 	addi	r6,sp,112
   82674:	dac00f15 	stw	r11,60(sp)
   82678:	da000815 	stw	r8,32(sp)
   8267c:	0082f280 	call	82f28 <__sprint_r>
   82680:	1039de1e 	bne	r2,zero,80dfc <___vfprintf_internal_r+0x42c>
   82684:	dd401617 	ldw	r21,88(sp)
   82688:	dc401e17 	ldw	r17,120(sp)
   8268c:	dac00f17 	ldw	r11,60(sp)
   82690:	da000817 	ldw	r8,32(sp)
   82694:	9021883a 	mov	r16,r18
   82698:	003edf06 	br	82218 <___vfprintf_internal_r+0x1848>
   8269c:	07000184 	movi	fp,6
   826a0:	003e4506 	br	81fb8 <___vfprintf_internal_r+0x15e8>
   826a4:	d9400417 	ldw	r5,16(sp)
   826a8:	d9000517 	ldw	r4,20(sp)
   826ac:	d9801c04 	addi	r6,sp,112
   826b0:	0082f280 	call	82f28 <__sprint_r>
   826b4:	0039d106 	br	80dfc <___vfprintf_internal_r+0x42c>
   826b8:	d9400417 	ldw	r5,16(sp)
   826bc:	d9000517 	ldw	r4,20(sp)
   826c0:	d9801c04 	addi	r6,sp,112
   826c4:	dac00f15 	stw	r11,60(sp)
   826c8:	da000815 	stw	r8,32(sp)
   826cc:	0082f280 	call	82f28 <__sprint_r>
   826d0:	1039ca1e 	bne	r2,zero,80dfc <___vfprintf_internal_r+0x42c>
   826d4:	dd401617 	ldw	r21,88(sp)
   826d8:	dc401e17 	ldw	r17,120(sp)
   826dc:	d8801d17 	ldw	r2,116(sp)
   826e0:	dac00f17 	ldw	r11,60(sp)
   826e4:	da000817 	ldw	r8,32(sp)
   826e8:	9021883a 	mov	r16,r18
   826ec:	a83edb0e 	bge	r21,zero,8225c <___vfprintf_internal_r+0x188c>
   826f0:	003f9006 	br	82534 <___vfprintf_internal_r+0x1b64>
   826f4:	d8801a04 	addi	r2,sp,104
   826f8:	d8800315 	stw	r2,12(sp)
   826fc:	d9400a17 	ldw	r5,40(sp)
   82700:	d8801704 	addi	r2,sp,92
   82704:	d9000517 	ldw	r4,20(sp)
   82708:	a8c00044 	addi	r3,r21,1
   8270c:	d8800215 	stw	r2,8(sp)
   82710:	d8801604 	addi	r2,sp,88
   82714:	d8800115 	stw	r2,4(sp)
   82718:	d8c00015 	stw	r3,0(sp)
   8271c:	01c00084 	movi	r7,2
   82720:	880d883a 	mov	r6,r17
   82724:	da001415 	stw	r8,80(sp)
   82728:	db001315 	stw	r12,76(sp)
   8272c:	da401215 	stw	r9,72(sp)
   82730:	d8c00915 	stw	r3,36(sp)
   82734:	00880780 	call	88078 <_dtoa_r>
   82738:	da401217 	ldw	r9,72(sp)
   8273c:	db001317 	ldw	r12,76(sp)
   82740:	da001417 	ldw	r8,80(sp)
   82744:	102d883a 	mov	r22,r2
   82748:	488011d8 	cmpnei	r2,r9,71
   8274c:	10013c1e 	bne	r2,zero,82c40 <___vfprintf_internal_r+0x2270>
   82750:	6080004c 	andi	r2,r12,1
   82754:	10001126 	beq	r2,zero,8279c <___vfprintf_internal_r+0x1dcc>
   82758:	d8800917 	ldw	r2,36(sp)
   8275c:	b0b9883a 	add	fp,r22,r2
   82760:	003f1006 	br	823a4 <___vfprintf_internal_r+0x19d4>
   82764:	d9400417 	ldw	r5,16(sp)
   82768:	d9000517 	ldw	r4,20(sp)
   8276c:	d9801c04 	addi	r6,sp,112
   82770:	dac01015 	stw	r11,64(sp)
   82774:	da000f15 	stw	r8,60(sp)
   82778:	0082f280 	call	82f28 <__sprint_r>
   8277c:	10399f1e 	bne	r2,zero,80dfc <___vfprintf_internal_r+0x42c>
   82780:	dc401e17 	ldw	r17,120(sp)
   82784:	dac01017 	ldw	r11,64(sp)
   82788:	da000f17 	ldw	r8,60(sp)
   8278c:	9021883a 	mov	r16,r18
   82790:	003d1706 	br	81bf0 <___vfprintf_internal_r+0x1220>
   82794:	dd400915 	stw	r21,36(sp)
   82798:	003feb06 	br	82748 <___vfprintf_internal_r+0x1d78>
   8279c:	d8801a17 	ldw	r2,104(sp)
   827a0:	d9c01617 	ldw	r7,88(sp)
   827a4:	1585c83a 	sub	r2,r2,r22
   827a8:	d8800915 	stw	r2,36(sp)
   827ac:	38bfff48 	cmpgei	r2,r7,-3
   827b0:	d9c00815 	stw	r7,32(sp)
   827b4:	1000b11e 	bne	r2,zero,82a7c <___vfprintf_internal_r+0x20ac>
   827b8:	4a7fff84 	addi	r9,r9,-2
   827bc:	393fffc4 	addi	r4,r7,-1
   827c0:	4805883a 	mov	r2,r9
   827c4:	00c00044 	movi	r3,1
   827c8:	19ebc83a 	sub	r21,r3,r7
   827cc:	00c00b44 	movi	r3,45
   827d0:	18c03fcc 	andi	r3,r3,255
   827d4:	1806923a 	slli	r3,r3,8
   827d8:	10803fcc 	andi	r2,r2,255
   827dc:	d9001615 	stw	r4,88(sp)
   827e0:	10c4b03a 	or	r2,r2,r3
   827e4:	d880180d 	sth	r2,96(sp)
   827e8:	a8800290 	cmplti	r2,r21,10
   827ec:	1000bc1e 	bne	r2,zero,82ae0 <___vfprintf_internal_r+0x2110>
   827f0:	df001bc4 	addi	fp,sp,111
   827f4:	e023883a 	mov	r17,fp
   827f8:	da400815 	stw	r9,32(sp)
   827fc:	a039883a 	mov	fp,r20
   82800:	db000f15 	stw	r12,60(sp)
   82804:	8029883a 	mov	r20,r16
   82808:	da001115 	stw	r8,68(sp)
   8280c:	a821883a 	mov	r16,r21
   82810:	982b883a 	mov	r21,r19
   82814:	8009883a 	mov	r4,r16
   82818:	01400284 	movi	r5,10
   8281c:	00806500 	call	80650 <__modsi3>
   82820:	10800c04 	addi	r2,r2,48
   82824:	8009883a 	mov	r4,r16
   82828:	88bfffc5 	stb	r2,-1(r17)
   8282c:	01400284 	movi	r5,10
   82830:	00805d00 	call	805d0 <__divsi3>
   82834:	81401908 	cmpgei	r5,r16,100
   82838:	8827883a 	mov	r19,r17
   8283c:	1021883a 	mov	r16,r2
   82840:	8c7fffc4 	addi	r17,r17,-1
   82844:	283ff31e 	bne	r5,zero,82814 <___vfprintf_internal_r+0x1e44>
   82848:	e005883a 	mov	r2,fp
   8284c:	8839883a 	mov	fp,r17
   82850:	9823883a 	mov	r17,r19
   82854:	a827883a 	mov	r19,r21
   82858:	802b883a 	mov	r21,r16
   8285c:	ad400c04 	addi	r21,r21,48
   82860:	a021883a 	mov	r16,r20
   82864:	e57fffc5 	stb	r21,-1(fp)
   82868:	1029883a 	mov	r20,r2
   8286c:	d8c01bc4 	addi	r3,sp,111
   82870:	88bfff84 	addi	r2,r17,-2
   82874:	da400817 	ldw	r9,32(sp)
   82878:	db000f17 	ldw	r12,60(sp)
   8287c:	da001117 	ldw	r8,68(sp)
   82880:	10c1312e 	bgeu	r2,r3,82d48 <___vfprintf_internal_r+0x2378>
   82884:	d8c01884 	addi	r3,sp,98
   82888:	11000003 	ldbu	r4,0(r2)
   8288c:	10800044 	addi	r2,r2,1
   82890:	18c00044 	addi	r3,r3,1
   82894:	193fffc5 	stb	r4,-1(r3)
   82898:	d9001bc4 	addi	r4,sp,111
   8289c:	113ffa1e 	bne	r2,r4,82888 <___vfprintf_internal_r+0x1eb8>
   828a0:	d8801c44 	addi	r2,sp,113
   828a4:	d8c01884 	addi	r3,sp,98
   828a8:	1445c83a 	sub	r2,r2,r17
   828ac:	1885883a 	add	r2,r3,r2
   828b0:	d8c01804 	addi	r3,sp,96
   828b4:	10c5c83a 	sub	r2,r2,r3
   828b8:	d8801115 	stw	r2,68(sp)
   828bc:	d8c00917 	ldw	r3,36(sp)
   828c0:	d9001117 	ldw	r4,68(sp)
   828c4:	18800088 	cmpgei	r2,r3,2
   828c8:	1939883a 	add	fp,r3,r4
   828cc:	10008b26 	beq	r2,zero,82afc <___vfprintf_internal_r+0x212c>
   828d0:	d8800c17 	ldw	r2,48(sp)
   828d4:	e0b9883a 	add	fp,fp,r2
   828d8:	e017883a 	mov	r11,fp
   828dc:	e000010e 	bge	fp,zero,828e4 <___vfprintf_internal_r+0x1f14>
   828e0:	0017883a 	mov	r11,zero
   828e4:	d8000815 	stw	zero,32(sp)
   828e8:	003ed306 	br	82438 <___vfprintf_internal_r+0x1a68>
   828ec:	d8801017 	ldw	r2,64(sp)
   828f0:	d9001543 	ldbu	r4,85(sp)
   828f4:	002b883a 	mov	r21,zero
   828f8:	d8800715 	stw	r2,28(sp)
   828fc:	0039c006 	br	81000 <___vfprintf_internal_r+0x630>
   82900:	d8801a04 	addi	r2,sp,104
   82904:	d8800315 	stw	r2,12(sp)
   82908:	d9400a17 	ldw	r5,40(sp)
   8290c:	d8801704 	addi	r2,sp,92
   82910:	d9000517 	ldw	r4,20(sp)
   82914:	d8800215 	stw	r2,8(sp)
   82918:	d8801604 	addi	r2,sp,88
   8291c:	d8800115 	stw	r2,4(sp)
   82920:	dd400015 	stw	r21,0(sp)
   82924:	01c000c4 	movi	r7,3
   82928:	880d883a 	mov	r6,r17
   8292c:	da001315 	stw	r8,76(sp)
   82930:	db001215 	stw	r12,72(sp)
   82934:	da400915 	stw	r9,36(sp)
   82938:	00880780 	call	88078 <_dtoa_r>
   8293c:	102d883a 	mov	r22,r2
   82940:	10800007 	ldb	r2,0(r2)
   82944:	da400917 	ldw	r9,36(sp)
   82948:	db001217 	ldw	r12,72(sp)
   8294c:	10800c20 	cmpeqi	r2,r2,48
   82950:	da001317 	ldw	r8,76(sp)
   82954:	10009b1e 	bne	r2,zero,82bc4 <___vfprintf_internal_r+0x21f4>
   82958:	d8801617 	ldw	r2,88(sp)
   8295c:	d9000a17 	ldw	r4,40(sp)
   82960:	880b883a 	mov	r5,r17
   82964:	000d883a 	mov	r6,zero
   82968:	000f883a 	mov	r7,zero
   8296c:	da001315 	stw	r8,76(sp)
   82970:	db001215 	stw	r12,72(sp)
   82974:	da400915 	stw	r9,36(sp)
   82978:	1563883a 	add	r17,r2,r21
   8297c:	00958200 	call	95820 <__eqdf2>
   82980:	da400917 	ldw	r9,36(sp)
   82984:	db001217 	ldw	r12,72(sp)
   82988:	da001317 	ldw	r8,76(sp)
   8298c:	10008b1e 	bne	r2,zero,82bbc <___vfprintf_internal_r+0x21ec>
   82990:	d8801617 	ldw	r2,88(sp)
   82994:	dc400915 	stw	r17,36(sp)
   82998:	d8800815 	stw	r2,32(sp)
   8299c:	003e9e06 	br	82418 <___vfprintf_internal_r+0x1a48>
   829a0:	d9400417 	ldw	r5,16(sp)
   829a4:	d9000517 	ldw	r4,20(sp)
   829a8:	d9801c04 	addi	r6,sp,112
   829ac:	dac01015 	stw	r11,64(sp)
   829b0:	da000f15 	stw	r8,60(sp)
   829b4:	0082f280 	call	82f28 <__sprint_r>
   829b8:	1039101e 	bne	r2,zero,80dfc <___vfprintf_internal_r+0x42c>
   829bc:	d8801617 	ldw	r2,88(sp)
   829c0:	dc401e17 	ldw	r17,120(sp)
   829c4:	dac01017 	ldw	r11,64(sp)
   829c8:	da000f17 	ldw	r8,60(sp)
   829cc:	9021883a 	mov	r16,r18
   829d0:	003c9606 	br	81c2c <___vfprintf_internal_r+0x125c>
   829d4:	9817883a 	mov	r11,r19
   829d8:	8819883a 	mov	r12,r17
   829dc:	a027883a 	mov	r19,r20
   829e0:	da000817 	ldw	r8,32(sp)
   829e4:	a829883a 	mov	r20,r21
   829e8:	2023883a 	mov	r17,r4
   829ec:	802b883a 	mov	r21,r16
   829f0:	1821883a 	mov	r16,r3
   829f4:	003c3306 	br	81ac4 <___vfprintf_internal_r+0x10f4>
   829f8:	a83e471e 	bne	r21,zero,82318 <___vfprintf_internal_r+0x1948>
   829fc:	05400044 	movi	r21,1
   82a00:	003e4506 	br	82318 <___vfprintf_internal_r+0x1948>
   82a04:	d9400417 	ldw	r5,16(sp)
   82a08:	d9000517 	ldw	r4,20(sp)
   82a0c:	d9801c04 	addi	r6,sp,112
   82a10:	dac01015 	stw	r11,64(sp)
   82a14:	da000f15 	stw	r8,60(sp)
   82a18:	0082f280 	call	82f28 <__sprint_r>
   82a1c:	1038f71e 	bne	r2,zero,80dfc <___vfprintf_internal_r+0x42c>
   82a20:	dc401e17 	ldw	r17,120(sp)
   82a24:	dac01017 	ldw	r11,64(sp)
   82a28:	da000f17 	ldw	r8,60(sp)
   82a2c:	9021883a 	mov	r16,r18
   82a30:	a83c6c0e 	bge	r21,zero,81be4 <___vfprintf_internal_r+0x1214>
   82a34:	003d3706 	br	81f14 <___vfprintf_internal_r+0x1544>
   82a38:	05400184 	movi	r21,6
   82a3c:	003e3606 	br	82318 <___vfprintf_internal_r+0x1948>
   82a40:	d9400417 	ldw	r5,16(sp)
   82a44:	d9000517 	ldw	r4,20(sp)
   82a48:	d9801c04 	addi	r6,sp,112
   82a4c:	dac00f15 	stw	r11,60(sp)
   82a50:	da000815 	stw	r8,32(sp)
   82a54:	0082f280 	call	82f28 <__sprint_r>
   82a58:	1038e81e 	bne	r2,zero,80dfc <___vfprintf_internal_r+0x42c>
   82a5c:	d8801617 	ldw	r2,88(sp)
   82a60:	d8c00917 	ldw	r3,36(sp)
   82a64:	dc401e17 	ldw	r17,120(sp)
   82a68:	dac00f17 	ldw	r11,60(sp)
   82a6c:	da000817 	ldw	r8,32(sp)
   82a70:	9021883a 	mov	r16,r18
   82a74:	1885c83a 	sub	r2,r3,r2
   82a78:	003c7f06 	br	81c78 <___vfprintf_internal_r+0x12a8>
   82a7c:	a9c0060e 	bge	r21,r7,82a98 <___vfprintf_internal_r+0x20c8>
   82a80:	4a7fff84 	addi	r9,r9,-2
   82a84:	3d7fffc4 	addi	r21,r7,-1
   82a88:	4805883a 	mov	r2,r9
   82a8c:	a809883a 	mov	r4,r21
   82a90:	00c00ac4 	movi	r3,43
   82a94:	003f4e06 	br	827d0 <___vfprintf_internal_r+0x1e00>
   82a98:	d8c00917 	ldw	r3,36(sp)
   82a9c:	38c01e16 	blt	r7,r3,82b18 <___vfprintf_internal_r+0x2148>
   82aa0:	6300004c 	andi	r12,r12,1
   82aa4:	60005f1e 	bne	r12,zero,82c24 <___vfprintf_internal_r+0x2254>
   82aa8:	3817883a 	mov	r11,r7
   82aac:	3800010e 	bge	r7,zero,82ab4 <___vfprintf_internal_r+0x20e4>
   82ab0:	0017883a 	mov	r11,zero
   82ab4:	3839883a 	mov	fp,r7
   82ab8:	024019c4 	movi	r9,103
   82abc:	003e5e06 	br	82438 <___vfprintf_internal_r+0x1a68>
   82ac0:	a817883a 	mov	r11,r21
   82ac4:	a839883a 	mov	fp,r21
   82ac8:	ddc00715 	stw	r23,28(sp)
   82acc:	d9001543 	ldbu	r4,85(sp)
   82ad0:	602f883a 	mov	r23,r12
   82ad4:	002b883a 	mov	r21,zero
   82ad8:	d8000815 	stw	zero,32(sp)
   82adc:	00394806 	br	81000 <___vfprintf_internal_r+0x630>
   82ae0:	00800c04 	movi	r2,48
   82ae4:	ad400c04 	addi	r21,r21,48
   82ae8:	d8801885 	stb	r2,98(sp)
   82aec:	00800104 	movi	r2,4
   82af0:	dd4018c5 	stb	r21,99(sp)
   82af4:	d8801115 	stw	r2,68(sp)
   82af8:	003f7006 	br	828bc <___vfprintf_internal_r+0x1eec>
   82afc:	6080004c 	andi	r2,r12,1
   82b00:	d8800815 	stw	r2,32(sp)
   82b04:	103f721e 	bne	r2,zero,828d0 <___vfprintf_internal_r+0x1f00>
   82b08:	e017883a 	mov	r11,fp
   82b0c:	e03e4a0e 	bge	fp,zero,82438 <___vfprintf_internal_r+0x1a68>
   82b10:	0017883a 	mov	r11,zero
   82b14:	003e4806 	br	82438 <___vfprintf_internal_r+0x1a68>
   82b18:	d8800917 	ldw	r2,36(sp)
   82b1c:	d8c00c17 	ldw	r3,48(sp)
   82b20:	10f9883a 	add	fp,r2,r3
   82b24:	d8800817 	ldw	r2,32(sp)
   82b28:	00800316 	blt	zero,r2,82b38 <___vfprintf_internal_r+0x2168>
   82b2c:	d8800817 	ldw	r2,32(sp)
   82b30:	e08fc83a 	sub	r7,fp,r2
   82b34:	3f000044 	addi	fp,r7,1
   82b38:	e017883a 	mov	r11,fp
   82b3c:	e0003e16 	blt	fp,zero,82c38 <___vfprintf_internal_r+0x2268>
   82b40:	024019c4 	movi	r9,103
   82b44:	003e3c06 	br	82438 <___vfprintf_internal_r+0x1a68>
   82b48:	00bfffc4 	movi	r2,-1
   82b4c:	d8800615 	stw	r2,24(sp)
   82b50:	0038ae06 	br	80e0c <___vfprintf_internal_r+0x43c>
   82b54:	da000817 	ldw	r8,32(sp)
   82b58:	8817883a 	mov	r11,r17
   82b5c:	8019883a 	mov	r12,r16
   82b60:	2023883a 	mov	r17,r4
   82b64:	1821883a 	mov	r16,r3
   82b68:	10800044 	addi	r2,r2,1
   82b6c:	8d63883a 	add	r17,r17,r21
   82b70:	83000015 	stw	r12,0(r16)
   82b74:	85400115 	stw	r21,4(r16)
   82b78:	dc401e15 	stw	r17,120(sp)
   82b7c:	d8801d15 	stw	r2,116(sp)
   82b80:	10c00208 	cmpgei	r3,r2,8
   82b84:	183db426 	beq	r3,zero,82258 <___vfprintf_internal_r+0x1888>
   82b88:	d9400417 	ldw	r5,16(sp)
   82b8c:	d9000517 	ldw	r4,20(sp)
   82b90:	d9801c04 	addi	r6,sp,112
   82b94:	dac00f15 	stw	r11,60(sp)
   82b98:	da000815 	stw	r8,32(sp)
   82b9c:	0082f280 	call	82f28 <__sprint_r>
   82ba0:	1038961e 	bne	r2,zero,80dfc <___vfprintf_internal_r+0x42c>
   82ba4:	dc401e17 	ldw	r17,120(sp)
   82ba8:	d8801d17 	ldw	r2,116(sp)
   82bac:	dac00f17 	ldw	r11,60(sp)
   82bb0:	da000817 	ldw	r8,32(sp)
   82bb4:	9021883a 	mov	r16,r18
   82bb8:	003da806 	br	8225c <___vfprintf_internal_r+0x188c>
   82bbc:	b479883a 	add	fp,r22,r17
   82bc0:	003e0406 	br	823d4 <___vfprintf_internal_r+0x1a04>
   82bc4:	d9000a17 	ldw	r4,40(sp)
   82bc8:	000d883a 	mov	r6,zero
   82bcc:	000f883a 	mov	r7,zero
   82bd0:	880b883a 	mov	r5,r17
   82bd4:	da001315 	stw	r8,76(sp)
   82bd8:	db001215 	stw	r12,72(sp)
   82bdc:	da400915 	stw	r9,36(sp)
   82be0:	00958200 	call	95820 <__eqdf2>
   82be4:	da400917 	ldw	r9,36(sp)
   82be8:	db001217 	ldw	r12,72(sp)
   82bec:	da001317 	ldw	r8,76(sp)
   82bf0:	103f5926 	beq	r2,zero,82958 <___vfprintf_internal_r+0x1f88>
   82bf4:	00800044 	movi	r2,1
   82bf8:	1545c83a 	sub	r2,r2,r21
   82bfc:	d8801615 	stw	r2,88(sp)
   82c00:	003f5606 	br	8295c <___vfprintf_internal_r+0x1f8c>
   82c04:	d8800b17 	ldw	r2,44(sp)
   82c08:	10003116 	blt	r2,zero,82cd0 <___vfprintf_internal_r+0x2300>
   82c0c:	d9001543 	ldbu	r4,85(sp)
   82c10:	48801210 	cmplti	r2,r9,72
   82c14:	10002b1e 	bne	r2,zero,82cc4 <___vfprintf_internal_r+0x22f4>
   82c18:	058002b4 	movhi	r22,10
   82c1c:	b5a63104 	addi	r22,r22,-26428
   82c20:	00398606 	br	8123c <___vfprintf_internal_r+0x86c>
   82c24:	d8800817 	ldw	r2,32(sp)
   82c28:	d8c00c17 	ldw	r3,48(sp)
   82c2c:	10f9883a 	add	fp,r2,r3
   82c30:	e017883a 	mov	r11,fp
   82c34:	e03fc20e 	bge	fp,zero,82b40 <___vfprintf_internal_r+0x2170>
   82c38:	0017883a 	mov	r11,zero
   82c3c:	003fc006 	br	82b40 <___vfprintf_internal_r+0x2170>
   82c40:	d9000a17 	ldw	r4,40(sp)
   82c44:	000d883a 	mov	r6,zero
   82c48:	000f883a 	mov	r7,zero
   82c4c:	880b883a 	mov	r5,r17
   82c50:	da001415 	stw	r8,80(sp)
   82c54:	db001315 	stw	r12,76(sp)
   82c58:	da401215 	stw	r9,72(sp)
   82c5c:	00958200 	call	95820 <__eqdf2>
   82c60:	da401217 	ldw	r9,72(sp)
   82c64:	db001317 	ldw	r12,76(sp)
   82c68:	da001417 	ldw	r8,80(sp)
   82c6c:	1000331e 	bne	r2,zero,82d3c <___vfprintf_internal_r+0x236c>
   82c70:	d8800817 	ldw	r2,32(sp)
   82c74:	d9c01617 	ldw	r7,88(sp)
   82c78:	108011e0 	cmpeqi	r2,r2,71
   82c7c:	103ecb1e 	bne	r2,zero,827ac <___vfprintf_internal_r+0x1ddc>
   82c80:	393fffc4 	addi	r4,r7,-1
   82c84:	4805883a 	mov	r2,r9
   82c88:	203ece16 	blt	r4,zero,827c4 <___vfprintf_internal_r+0x1df4>
   82c8c:	202b883a 	mov	r21,r4
   82c90:	00c00ac4 	movi	r3,43
   82c94:	003ece06 	br	827d0 <___vfprintf_internal_r+0x1e00>
   82c98:	e585c83a 	sub	r2,fp,r22
   82c9c:	d9c01617 	ldw	r7,88(sp)
   82ca0:	d8800915 	stw	r2,36(sp)
   82ca4:	003ec106 	br	827ac <___vfprintf_internal_r+0x1ddc>
   82ca8:	d8800c17 	ldw	r2,48(sp)
   82cac:	188f883a 	add	r7,r3,r2
   82cb0:	3d79883a 	add	fp,r7,r21
   82cb4:	e017883a 	mov	r11,fp
   82cb8:	e03dde0e 	bge	fp,zero,82434 <___vfprintf_internal_r+0x1a64>
   82cbc:	0017883a 	mov	r11,zero
   82cc0:	003ddc06 	br	82434 <___vfprintf_internal_r+0x1a64>
   82cc4:	058002b4 	movhi	r22,10
   82cc8:	b5a63004 	addi	r22,r22,-26432
   82ccc:	00395b06 	br	8123c <___vfprintf_internal_r+0x86c>
   82cd0:	00800b44 	movi	r2,45
   82cd4:	d8801545 	stb	r2,85(sp)
   82cd8:	01000b44 	movi	r4,45
   82cdc:	003fcc06 	br	82c10 <___vfprintf_internal_r+0x2240>
   82ce0:	d8c00717 	ldw	r3,28(sp)
   82ce4:	1d400017 	ldw	r21,0(r3)
   82ce8:	18c00104 	addi	r3,r3,4
   82cec:	a800010e 	bge	r21,zero,82cf4 <___vfprintf_internal_r+0x2324>
   82cf0:	057fffc4 	movi	r21,-1
   82cf4:	9a400043 	ldbu	r9,1(r19)
   82cf8:	d8c00715 	stw	r3,28(sp)
   82cfc:	1027883a 	mov	r19,r2
   82d00:	4a403fcc 	andi	r9,r9,255
   82d04:	4a40201c 	xori	r9,r9,128
   82d08:	4a7fe004 	addi	r9,r9,-128
   82d0c:	00377f06 	br	80b0c <___vfprintf_internal_r+0x13c>
   82d10:	1000041e 	bne	r2,zero,82d24 <___vfprintf_internal_r+0x2354>
   82d14:	02c00044 	movi	r11,1
   82d18:	02401984 	movi	r9,102
   82d1c:	07000044 	movi	fp,1
   82d20:	003dc506 	br	82438 <___vfprintf_internal_r+0x1a68>
   82d24:	d8800c17 	ldw	r2,48(sp)
   82d28:	11c00044 	addi	r7,r2,1
   82d2c:	3d79883a 	add	fp,r7,r21
   82d30:	e017883a 	mov	r11,fp
   82d34:	e03dbf0e 	bge	fp,zero,82434 <___vfprintf_internal_r+0x1a64>
   82d38:	003fe006 	br	82cbc <___vfprintf_internal_r+0x22ec>
   82d3c:	d8800917 	ldw	r2,36(sp)
   82d40:	b0b9883a 	add	fp,r22,r2
   82d44:	003da306 	br	823d4 <___vfprintf_internal_r+0x1a04>
   82d48:	00800084 	movi	r2,2
   82d4c:	d8801115 	stw	r2,68(sp)
   82d50:	003eda06 	br	828bc <___vfprintf_internal_r+0x1eec>

00082d54 <__vfprintf_internal>:
   82d54:	00c002b4 	movhi	r3,10
   82d58:	2005883a 	mov	r2,r4
   82d5c:	192e6a17 	ldw	r4,-18008(r3)
   82d60:	300f883a 	mov	r7,r6
   82d64:	280d883a 	mov	r6,r5
   82d68:	100b883a 	mov	r5,r2
   82d6c:	00809d01 	jmpi	809d0 <___vfprintf_internal_r>

00082d70 <__sbprintf>:
   82d70:	28c0038b 	ldhu	r3,14(r5)
   82d74:	2880030b 	ldhu	r2,12(r5)
   82d78:	2ac01917 	ldw	r11,100(r5)
   82d7c:	1806943a 	slli	r3,r3,16
   82d80:	2a800717 	ldw	r10,28(r5)
   82d84:	2a400917 	ldw	r9,36(r5)
   82d88:	defee204 	addi	sp,sp,-1144
   82d8c:	10bfff4c 	andi	r2,r2,65533
   82d90:	10c4b03a 	or	r2,r2,r3
   82d94:	da001a04 	addi	r8,sp,104
   82d98:	00c10004 	movi	r3,1024
   82d9c:	dc011a15 	stw	r16,1128(sp)
   82da0:	2821883a 	mov	r16,r5
   82da4:	d80b883a 	mov	r5,sp
   82da8:	dc811c15 	stw	r18,1136(sp)
   82dac:	dc411b15 	stw	r17,1132(sp)
   82db0:	dfc11d15 	stw	ra,1140(sp)
   82db4:	2025883a 	mov	r18,r4
   82db8:	dac01915 	stw	r11,100(sp)
   82dbc:	d8800315 	stw	r2,12(sp)
   82dc0:	da800715 	stw	r10,28(sp)
   82dc4:	da400915 	stw	r9,36(sp)
   82dc8:	da000015 	stw	r8,0(sp)
   82dcc:	da000415 	stw	r8,16(sp)
   82dd0:	d8c00215 	stw	r3,8(sp)
   82dd4:	d8c00515 	stw	r3,20(sp)
   82dd8:	d8000615 	stw	zero,24(sp)
   82ddc:	00809d00 	call	809d0 <___vfprintf_internal_r>
   82de0:	1023883a 	mov	r17,r2
   82de4:	10000d0e 	bge	r2,zero,82e1c <__sbprintf+0xac>
   82de8:	d880030b 	ldhu	r2,12(sp)
   82dec:	1080100c 	andi	r2,r2,64
   82df0:	10000326 	beq	r2,zero,82e00 <__sbprintf+0x90>
   82df4:	8080030b 	ldhu	r2,12(r16)
   82df8:	10801014 	ori	r2,r2,64
   82dfc:	8080030d 	sth	r2,12(r16)
   82e00:	8805883a 	mov	r2,r17
   82e04:	dfc11d17 	ldw	ra,1140(sp)
   82e08:	dc811c17 	ldw	r18,1136(sp)
   82e0c:	dc411b17 	ldw	r17,1132(sp)
   82e10:	dc011a17 	ldw	r16,1128(sp)
   82e14:	dec11e04 	addi	sp,sp,1144
   82e18:	f800283a 	ret
   82e1c:	d80b883a 	mov	r5,sp
   82e20:	9009883a 	mov	r4,r18
   82e24:	0085ffc0 	call	85ffc <_fflush_r>
   82e28:	103fef26 	beq	r2,zero,82de8 <__sbprintf+0x78>
   82e2c:	047fffc4 	movi	r17,-1
   82e30:	003fed06 	br	82de8 <__sbprintf+0x78>

00082e34 <__sprint_r.part.0>:
   82e34:	28801917 	ldw	r2,100(r5)
   82e38:	defff604 	addi	sp,sp,-40
   82e3c:	dcc00315 	stw	r19,12(sp)
   82e40:	dfc00915 	stw	ra,36(sp)
   82e44:	df000815 	stw	fp,32(sp)
   82e48:	ddc00715 	stw	r23,28(sp)
   82e4c:	dd800615 	stw	r22,24(sp)
   82e50:	dd400515 	stw	r21,20(sp)
   82e54:	dd000415 	stw	r20,16(sp)
   82e58:	dc800215 	stw	r18,8(sp)
   82e5c:	dc400115 	stw	r17,4(sp)
   82e60:	dc000015 	stw	r16,0(sp)
   82e64:	1088000c 	andi	r2,r2,8192
   82e68:	3027883a 	mov	r19,r6
   82e6c:	10002c26 	beq	r2,zero,82f20 <__sprint_r.part.0+0xec>
   82e70:	30800217 	ldw	r2,8(r6)
   82e74:	35000017 	ldw	r20,0(r6)
   82e78:	2821883a 	mov	r16,r5
   82e7c:	2023883a 	mov	r17,r4
   82e80:	05bfff04 	movi	r22,-4
   82e84:	10002426 	beq	r2,zero,82f18 <__sprint_r.part.0+0xe4>
   82e88:	a5400117 	ldw	r21,4(r20)
   82e8c:	a5c00017 	ldw	r23,0(r20)
   82e90:	a824d0ba 	srli	r18,r21,2
   82e94:	90001b26 	beq	r18,zero,82f04 <__sprint_r.part.0+0xd0>
   82e98:	0039883a 	mov	fp,zero
   82e9c:	00000206 	br	82ea8 <__sprint_r.part.0+0x74>
   82ea0:	bdc00104 	addi	r23,r23,4
   82ea4:	97001626 	beq	r18,fp,82f00 <__sprint_r.part.0+0xcc>
   82ea8:	b9400017 	ldw	r5,0(r23)
   82eac:	800d883a 	mov	r6,r16
   82eb0:	8809883a 	mov	r4,r17
   82eb4:	00875e80 	call	875e8 <_fputwc_r>
   82eb8:	10bfffe0 	cmpeqi	r2,r2,-1
   82ebc:	e7000044 	addi	fp,fp,1
   82ec0:	103ff726 	beq	r2,zero,82ea0 <__sprint_r.part.0+0x6c>
   82ec4:	00bfffc4 	movi	r2,-1
   82ec8:	98000215 	stw	zero,8(r19)
   82ecc:	98000115 	stw	zero,4(r19)
   82ed0:	dfc00917 	ldw	ra,36(sp)
   82ed4:	df000817 	ldw	fp,32(sp)
   82ed8:	ddc00717 	ldw	r23,28(sp)
   82edc:	dd800617 	ldw	r22,24(sp)
   82ee0:	dd400517 	ldw	r21,20(sp)
   82ee4:	dd000417 	ldw	r20,16(sp)
   82ee8:	dcc00317 	ldw	r19,12(sp)
   82eec:	dc800217 	ldw	r18,8(sp)
   82ef0:	dc400117 	ldw	r17,4(sp)
   82ef4:	dc000017 	ldw	r16,0(sp)
   82ef8:	dec00a04 	addi	sp,sp,40
   82efc:	f800283a 	ret
   82f00:	98800217 	ldw	r2,8(r19)
   82f04:	adaa703a 	and	r21,r21,r22
   82f08:	1545c83a 	sub	r2,r2,r21
   82f0c:	98800215 	stw	r2,8(r19)
   82f10:	a5000204 	addi	r20,r20,8
   82f14:	103fdc1e 	bne	r2,zero,82e88 <__sprint_r.part.0+0x54>
   82f18:	0005883a 	mov	r2,zero
   82f1c:	003fea06 	br	82ec8 <__sprint_r.part.0+0x94>
   82f20:	00866e80 	call	866e8 <__sfvwrite_r>
   82f24:	003fe806 	br	82ec8 <__sprint_r.part.0+0x94>

00082f28 <__sprint_r>:
   82f28:	30c00217 	ldw	r3,8(r6)
   82f2c:	18000126 	beq	r3,zero,82f34 <__sprint_r+0xc>
   82f30:	0082e341 	jmpi	82e34 <__sprint_r.part.0>
   82f34:	30000115 	stw	zero,4(r6)
   82f38:	0005883a 	mov	r2,zero
   82f3c:	f800283a 	ret

00082f40 <___vfiprintf_internal_r>:
   82f40:	deffcf04 	addi	sp,sp,-196
   82f44:	dd002b15 	stw	r20,172(sp)
   82f48:	dc802915 	stw	r18,164(sp)
   82f4c:	dfc03015 	stw	ra,192(sp)
   82f50:	df002f15 	stw	fp,188(sp)
   82f54:	ddc02e15 	stw	r23,184(sp)
   82f58:	dd802d15 	stw	r22,180(sp)
   82f5c:	dd402c15 	stw	r21,176(sp)
   82f60:	dcc02a15 	stw	r19,168(sp)
   82f64:	dc402815 	stw	r17,160(sp)
   82f68:	dc002715 	stw	r16,156(sp)
   82f6c:	d9000015 	stw	r4,0(sp)
   82f70:	d9c00315 	stw	r7,12(sp)
   82f74:	2825883a 	mov	r18,r5
   82f78:	3029883a 	mov	r20,r6
   82f7c:	20000226 	beq	r4,zero,82f88 <___vfiprintf_internal_r+0x48>
   82f80:	20800d17 	ldw	r2,52(r4)
   82f84:	10044f26 	beq	r2,zero,840c4 <___vfiprintf_internal_r+0x1184>
   82f88:	9080030b 	ldhu	r2,12(r18)
   82f8c:	10c8000c 	andi	r3,r2,8192
   82f90:	1800071e 	bne	r3,zero,82fb0 <___vfiprintf_internal_r+0x70>
   82f94:	90c01917 	ldw	r3,100(r18)
   82f98:	11080014 	ori	r4,r2,8192
   82f9c:	00b7ffc4 	movi	r2,-8193
   82fa0:	1886703a 	and	r3,r3,r2
   82fa4:	9100030d 	sth	r4,12(r18)
   82fa8:	2005883a 	mov	r2,r4
   82fac:	90c01915 	stw	r3,100(r18)
   82fb0:	10c0020c 	andi	r3,r2,8
   82fb4:	1800ff26 	beq	r3,zero,833b4 <___vfiprintf_internal_r+0x474>
   82fb8:	90c00417 	ldw	r3,16(r18)
   82fbc:	1800fd26 	beq	r3,zero,833b4 <___vfiprintf_internal_r+0x474>
   82fc0:	1080068c 	andi	r2,r2,26
   82fc4:	10800298 	cmpnei	r2,r2,10
   82fc8:	10010226 	beq	r2,zero,833d4 <___vfiprintf_internal_r+0x494>
   82fcc:	dcc01704 	addi	r19,sp,92
   82fd0:	05c002b4 	movhi	r23,10
   82fd4:	dcc00a15 	stw	r19,40(sp)
   82fd8:	d8000c15 	stw	zero,48(sp)
   82fdc:	d8000b15 	stw	zero,44(sp)
   82fe0:	9811883a 	mov	r8,r19
   82fe4:	d8000515 	stw	zero,20(sp)
   82fe8:	d8000115 	stw	zero,4(sp)
   82fec:	bde64704 	addi	r23,r23,-26340
   82ff0:	a0800007 	ldb	r2,0(r20)
   82ff4:	1000dd26 	beq	r2,zero,8336c <___vfiprintf_internal_r+0x42c>
   82ff8:	a021883a 	mov	r16,r20
   82ffc:	00000306 	br	8300c <___vfiprintf_internal_r+0xcc>
   83000:	80800047 	ldb	r2,1(r16)
   83004:	84000044 	addi	r16,r16,1
   83008:	10011a26 	beq	r2,zero,83474 <___vfiprintf_internal_r+0x534>
   8300c:	10800958 	cmpnei	r2,r2,37
   83010:	103ffb1e 	bne	r2,zero,83000 <___vfiprintf_internal_r+0xc0>
   83014:	8523c83a 	sub	r17,r16,r20
   83018:	8501181e 	bne	r16,r20,8347c <___vfiprintf_internal_r+0x53c>
   8301c:	80800003 	ldbu	r2,0(r16)
   83020:	10803fcc 	andi	r2,r2,255
   83024:	1080201c 	xori	r2,r2,128
   83028:	10bfe004 	addi	r2,r2,-128
   8302c:	1000cf26 	beq	r2,zero,8336c <___vfiprintf_internal_r+0x42c>
   83030:	80800047 	ldb	r2,1(r16)
   83034:	85000044 	addi	r20,r16,1
   83038:	d8000945 	stb	zero,37(sp)
   8303c:	027fffc4 	movi	r9,-1
   83040:	0023883a 	mov	r17,zero
   83044:	0021883a 	mov	r16,zero
   83048:	a5000044 	addi	r20,r20,1
   8304c:	10fff804 	addi	r3,r2,-32
   83050:	19001668 	cmpgeui	r4,r3,89
   83054:	20006c1e 	bne	r4,zero,83208 <___vfiprintf_internal_r+0x2c8>
   83058:	180690ba 	slli	r3,r3,2
   8305c:	01000234 	movhi	r4,8
   83060:	1909883a 	add	r4,r3,r4
   83064:	20cc1b17 	ldw	r3,12396(r4)
   83068:	1800683a 	jmp	r3
   8306c:	00083708 	cmpgei	zero,zero,8412
   83070:	00083208 	cmpgei	zero,zero,8392
   83074:	00083208 	cmpgei	zero,zero,8392
   83078:	000836fc 	xorhi	zero,zero,8411
   8307c:	00083208 	cmpgei	zero,zero,8392
   83080:	00083208 	cmpgei	zero,zero,8392
   83084:	00083208 	cmpgei	zero,zero,8392
   83088:	00083208 	cmpgei	zero,zero,8392
   8308c:	00083208 	cmpgei	zero,zero,8392
   83090:	00083208 	cmpgei	zero,zero,8392
   83094:	00083670 	cmpltui	zero,zero,8409
   83098:	000836ec 	andhi	zero,zero,8411
   8309c:	00083208 	cmpgei	zero,zero,8392
   830a0:	00083688 	cmpgei	zero,zero,8410
   830a4:	00083694 	movui	zero,8410
   830a8:	00083208 	cmpgei	zero,zero,8392
   830ac:	000836e0 	cmpeqi	zero,zero,8411
   830b0:	000831d0 	cmplti	zero,zero,8391
   830b4:	000831d0 	cmplti	zero,zero,8391
   830b8:	000831d0 	cmplti	zero,zero,8391
   830bc:	000831d0 	cmplti	zero,zero,8391
   830c0:	000831d0 	cmplti	zero,zero,8391
   830c4:	000831d0 	cmplti	zero,zero,8391
   830c8:	000831d0 	cmplti	zero,zero,8391
   830cc:	000831d0 	cmplti	zero,zero,8391
   830d0:	000831d0 	cmplti	zero,zero,8391
   830d4:	00083208 	cmpgei	zero,zero,8392
   830d8:	00083208 	cmpgei	zero,zero,8392
   830dc:	00083208 	cmpgei	zero,zero,8392
   830e0:	00083208 	cmpgei	zero,zero,8392
   830e4:	00083208 	cmpgei	zero,zero,8392
   830e8:	00083208 	cmpgei	zero,zero,8392
   830ec:	00083208 	cmpgei	zero,zero,8392
   830f0:	00083208 	cmpgei	zero,zero,8392
   830f4:	00083208 	cmpgei	zero,zero,8392
   830f8:	00083208 	cmpgei	zero,zero,8392
   830fc:	0008341c 	xori	zero,zero,8400
   83100:	00083208 	cmpgei	zero,zero,8392
   83104:	00083208 	cmpgei	zero,zero,8392
   83108:	00083208 	cmpgei	zero,zero,8392
   8310c:	00083208 	cmpgei	zero,zero,8392
   83110:	00083208 	cmpgei	zero,zero,8392
   83114:	00083208 	cmpgei	zero,zero,8392
   83118:	00083208 	cmpgei	zero,zero,8392
   8311c:	00083208 	cmpgei	zero,zero,8392
   83120:	00083208 	cmpgei	zero,zero,8392
   83124:	00083208 	cmpgei	zero,zero,8392
   83128:	00083824 	muli	zero,zero,8416
   8312c:	00083208 	cmpgei	zero,zero,8392
   83130:	00083208 	cmpgei	zero,zero,8392
   83134:	00083208 	cmpgei	zero,zero,8392
   83138:	00083208 	cmpgei	zero,zero,8392
   8313c:	00083208 	cmpgei	zero,zero,8392
   83140:	000837c0 	call	837c <__reset-0x77c84>
   83144:	00083208 	cmpgei	zero,zero,8392
   83148:	00083208 	cmpgei	zero,zero,8392
   8314c:	00083fb4 	movhi	zero,8446
   83150:	00083208 	cmpgei	zero,zero,8392
   83154:	00083208 	cmpgei	zero,zero,8392
   83158:	00083208 	cmpgei	zero,zero,8392
   8315c:	00083208 	cmpgei	zero,zero,8392
   83160:	00083208 	cmpgei	zero,zero,8392
   83164:	00083208 	cmpgei	zero,zero,8392
   83168:	00083208 	cmpgei	zero,zero,8392
   8316c:	00083208 	cmpgei	zero,zero,8392
   83170:	00083208 	cmpgei	zero,zero,8392
   83174:	00083208 	cmpgei	zero,zero,8392
   83178:	00083798 	cmpnei	zero,zero,8414
   8317c:	00083420 	cmpeqi	zero,zero,8400
   83180:	00083208 	cmpgei	zero,zero,8392
   83184:	00083208 	cmpgei	zero,zero,8392
   83188:	00083208 	cmpgei	zero,zero,8392
   8318c:	0008378c 	andi	zero,zero,8414
   83190:	00083420 	cmpeqi	zero,zero,8400
   83194:	00083208 	cmpgei	zero,zero,8392
   83198:	00083208 	cmpgei	zero,zero,8392
   8319c:	00083778 	rdprs	zero,zero,8413
   831a0:	00083208 	cmpgei	zero,zero,8392
   831a4:	00083748 	cmpgei	zero,zero,8413
   831a8:	00084010 	cmplti	zero,zero,8448
   831ac:	00083944 	movi	zero,8421
   831b0:	00083938 	rdprs	zero,zero,8420
   831b4:	00083208 	cmpgei	zero,zero,8392
   831b8:	000838d4 	movui	zero,8419
   831bc:	00083208 	cmpgei	zero,zero,8392
   831c0:	00083fac 	andhi	zero,zero,8446
   831c4:	00083208 	cmpgei	zero,zero,8392
   831c8:	00083208 	cmpgei	zero,zero,8392
   831cc:	00084018 	cmpnei	zero,zero,8448
   831d0:	0023883a 	mov	r17,zero
   831d4:	113ff404 	addi	r4,r2,-48
   831d8:	880690ba 	slli	r3,r17,2
   831dc:	a0800007 	ldb	r2,0(r20)
   831e0:	a5000044 	addi	r20,r20,1
   831e4:	1c47883a 	add	r3,r3,r17
   831e8:	18c7883a 	add	r3,r3,r3
   831ec:	20e3883a 	add	r17,r4,r3
   831f0:	113ff404 	addi	r4,r2,-48
   831f4:	20c002b0 	cmpltui	r3,r4,10
   831f8:	183ff71e 	bne	r3,zero,831d8 <___vfiprintf_internal_r+0x298>
   831fc:	10fff804 	addi	r3,r2,-32
   83200:	19001668 	cmpgeui	r4,r3,89
   83204:	203f9426 	beq	r4,zero,83058 <___vfiprintf_internal_r+0x118>
   83208:	10005826 	beq	r2,zero,8336c <___vfiprintf_internal_r+0x42c>
   8320c:	d8800d05 	stb	r2,52(sp)
   83210:	d8000945 	stb	zero,37(sp)
   83214:	05800044 	movi	r22,1
   83218:	05400044 	movi	r21,1
   8321c:	df000d04 	addi	fp,sp,52
   83220:	0013883a 	mov	r9,zero
   83224:	8340008c 	andi	r13,r16,2
   83228:	68000126 	beq	r13,zero,83230 <___vfiprintf_internal_r+0x2f0>
   8322c:	b5800084 	addi	r22,r22,2
   83230:	d9000b17 	ldw	r4,44(sp)
   83234:	8300210c 	andi	r12,r16,132
   83238:	d8800c17 	ldw	r2,48(sp)
   8323c:	21800044 	addi	r6,r4,1
   83240:	300b883a 	mov	r5,r6
   83244:	6000021e 	bne	r12,zero,83250 <___vfiprintf_internal_r+0x310>
   83248:	8d87c83a 	sub	r3,r17,r22
   8324c:	00c29216 	blt	zero,r3,83c98 <___vfiprintf_internal_r+0xd58>
   83250:	d8c00947 	ldb	r3,37(sp)
   83254:	18000c26 	beq	r3,zero,83288 <___vfiprintf_internal_r+0x348>
   83258:	d8c00944 	addi	r3,sp,37
   8325c:	10800044 	addi	r2,r2,1
   83260:	40c00015 	stw	r3,0(r8)
   83264:	00c00044 	movi	r3,1
   83268:	40c00115 	stw	r3,4(r8)
   8326c:	d8800c15 	stw	r2,48(sp)
   83270:	d9400b15 	stw	r5,44(sp)
   83274:	28c00208 	cmpgei	r3,r5,8
   83278:	18026b1e 	bne	r3,zero,83c28 <___vfiprintf_internal_r+0xce8>
   8327c:	2809883a 	mov	r4,r5
   83280:	42000204 	addi	r8,r8,8
   83284:	29400044 	addi	r5,r5,1
   83288:	68001726 	beq	r13,zero,832e8 <___vfiprintf_internal_r+0x3a8>
   8328c:	d8c00984 	addi	r3,sp,38
   83290:	10800084 	addi	r2,r2,2
   83294:	40c00015 	stw	r3,0(r8)
   83298:	00c00084 	movi	r3,2
   8329c:	40c00115 	stw	r3,4(r8)
   832a0:	d8800c15 	stw	r2,48(sp)
   832a4:	d9400b15 	stw	r5,44(sp)
   832a8:	28c00208 	cmpgei	r3,r5,8
   832ac:	18027626 	beq	r3,zero,83c88 <___vfiprintf_internal_r+0xd48>
   832b0:	1002f926 	beq	r2,zero,83e98 <___vfiprintf_internal_r+0xf58>
   832b4:	d9000017 	ldw	r4,0(sp)
   832b8:	d9800a04 	addi	r6,sp,40
   832bc:	900b883a 	mov	r5,r18
   832c0:	da400415 	stw	r9,16(sp)
   832c4:	db000215 	stw	r12,8(sp)
   832c8:	0082e340 	call	82e34 <__sprint_r.part.0>
   832cc:	1000291e 	bne	r2,zero,83374 <___vfiprintf_internal_r+0x434>
   832d0:	d9000b17 	ldw	r4,44(sp)
   832d4:	d8800c17 	ldw	r2,48(sp)
   832d8:	da400417 	ldw	r9,16(sp)
   832dc:	db000217 	ldw	r12,8(sp)
   832e0:	9811883a 	mov	r8,r19
   832e4:	21400044 	addi	r5,r4,1
   832e8:	63002018 	cmpnei	r12,r12,128
   832ec:	6001d226 	beq	r12,zero,83a38 <___vfiprintf_internal_r+0xaf8>
   832f0:	4d53c83a 	sub	r9,r9,r21
   832f4:	02421016 	blt	zero,r9,83b38 <___vfiprintf_internal_r+0xbf8>
   832f8:	a885883a 	add	r2,r21,r2
   832fc:	d9400b15 	stw	r5,44(sp)
   83300:	47000015 	stw	fp,0(r8)
   83304:	45400115 	stw	r21,4(r8)
   83308:	d8800c15 	stw	r2,48(sp)
   8330c:	29400208 	cmpgei	r5,r5,8
   83310:	2801c326 	beq	r5,zero,83a20 <___vfiprintf_internal_r+0xae0>
   83314:	10007126 	beq	r2,zero,834dc <___vfiprintf_internal_r+0x59c>
   83318:	d9000017 	ldw	r4,0(sp)
   8331c:	d9800a04 	addi	r6,sp,40
   83320:	900b883a 	mov	r5,r18
   83324:	0082e340 	call	82e34 <__sprint_r.part.0>
   83328:	1000121e 	bne	r2,zero,83374 <___vfiprintf_internal_r+0x434>
   8332c:	d8800c17 	ldw	r2,48(sp)
   83330:	9811883a 	mov	r8,r19
   83334:	8400010c 	andi	r16,r16,4
   83338:	80000226 	beq	r16,zero,83344 <___vfiprintf_internal_r+0x404>
   8333c:	8da1c83a 	sub	r16,r17,r22
   83340:	04006c16 	blt	zero,r16,834f4 <___vfiprintf_internal_r+0x5b4>
   83344:	8d80010e 	bge	r17,r22,8334c <___vfiprintf_internal_r+0x40c>
   83348:	b023883a 	mov	r17,r22
   8334c:	d8c00117 	ldw	r3,4(sp)
   83350:	1c47883a 	add	r3,r3,r17
   83354:	d8c00115 	stw	r3,4(sp)
   83358:	1002291e 	bne	r2,zero,83c00 <___vfiprintf_internal_r+0xcc0>
   8335c:	a0800007 	ldb	r2,0(r20)
   83360:	d8000b15 	stw	zero,44(sp)
   83364:	9811883a 	mov	r8,r19
   83368:	103f231e 	bne	r2,zero,82ff8 <___vfiprintf_internal_r+0xb8>
   8336c:	d8800c17 	ldw	r2,48(sp)
   83370:	10036c1e 	bne	r2,zero,84124 <___vfiprintf_internal_r+0x11e4>
   83374:	9080030b 	ldhu	r2,12(r18)
   83378:	1080100c 	andi	r2,r2,64
   8337c:	10037d1e 	bne	r2,zero,84174 <___vfiprintf_internal_r+0x1234>
   83380:	d8800117 	ldw	r2,4(sp)
   83384:	dfc03017 	ldw	ra,192(sp)
   83388:	df002f17 	ldw	fp,188(sp)
   8338c:	ddc02e17 	ldw	r23,184(sp)
   83390:	dd802d17 	ldw	r22,180(sp)
   83394:	dd402c17 	ldw	r21,176(sp)
   83398:	dd002b17 	ldw	r20,172(sp)
   8339c:	dcc02a17 	ldw	r19,168(sp)
   833a0:	dc802917 	ldw	r18,164(sp)
   833a4:	dc402817 	ldw	r17,160(sp)
   833a8:	dc002717 	ldw	r16,156(sp)
   833ac:	dec03104 	addi	sp,sp,196
   833b0:	f800283a 	ret
   833b4:	d9000017 	ldw	r4,0(sp)
   833b8:	900b883a 	mov	r5,r18
   833bc:	00873400 	call	87340 <__swsetup_r>
   833c0:	10036c1e 	bne	r2,zero,84174 <___vfiprintf_internal_r+0x1234>
   833c4:	9080030b 	ldhu	r2,12(r18)
   833c8:	1080068c 	andi	r2,r2,26
   833cc:	10800298 	cmpnei	r2,r2,10
   833d0:	103efe1e 	bne	r2,zero,82fcc <___vfiprintf_internal_r+0x8c>
   833d4:	9080038f 	ldh	r2,14(r18)
   833d8:	103efc16 	blt	r2,zero,82fcc <___vfiprintf_internal_r+0x8c>
   833dc:	d9c00317 	ldw	r7,12(sp)
   833e0:	d9000017 	ldw	r4,0(sp)
   833e4:	a00d883a 	mov	r6,r20
   833e8:	900b883a 	mov	r5,r18
   833ec:	dfc03017 	ldw	ra,192(sp)
   833f0:	df002f17 	ldw	fp,188(sp)
   833f4:	ddc02e17 	ldw	r23,184(sp)
   833f8:	dd802d17 	ldw	r22,180(sp)
   833fc:	dd402c17 	ldw	r21,176(sp)
   83400:	dd002b17 	ldw	r20,172(sp)
   83404:	dcc02a17 	ldw	r19,168(sp)
   83408:	dc802917 	ldw	r18,164(sp)
   8340c:	dc402817 	ldw	r17,160(sp)
   83410:	dc002717 	ldw	r16,156(sp)
   83414:	dec03104 	addi	sp,sp,196
   83418:	00841f81 	jmpi	841f8 <__sbprintf>
   8341c:	84000414 	ori	r16,r16,16
   83420:	8080080c 	andi	r2,r16,32
   83424:	10006626 	beq	r2,zero,835c0 <___vfiprintf_internal_r+0x680>
   83428:	d8c00317 	ldw	r3,12(sp)
   8342c:	18800117 	ldw	r2,4(r3)
   83430:	1d800017 	ldw	r22,0(r3)
   83434:	18c00204 	addi	r3,r3,8
   83438:	d8c00315 	stw	r3,12(sp)
   8343c:	102b883a 	mov	r21,r2
   83440:	10006d16 	blt	r2,zero,835f8 <___vfiprintf_internal_r+0x6b8>
   83444:	48bfffd8 	cmpnei	r2,r9,-1
   83448:	db000943 	ldbu	r12,37(sp)
   8344c:	10007526 	beq	r2,zero,83624 <___vfiprintf_internal_r+0x6e4>
   83450:	00ffdfc4 	movi	r3,-129
   83454:	b544b03a 	or	r2,r22,r21
   83458:	80e0703a 	and	r16,r16,r3
   8345c:	1000711e 	bne	r2,zero,83624 <___vfiprintf_internal_r+0x6e4>
   83460:	4803471e 	bne	r9,zero,84180 <___vfiprintf_internal_r+0x1240>
   83464:	002d883a 	mov	r22,zero
   83468:	002b883a 	mov	r21,zero
   8346c:	9839883a 	mov	fp,r19
   83470:	00007606 	br	8364c <___vfiprintf_internal_r+0x70c>
   83474:	8523c83a 	sub	r17,r16,r20
   83478:	853fbc26 	beq	r16,r20,8336c <___vfiprintf_internal_r+0x42c>
   8347c:	d8c00c17 	ldw	r3,48(sp)
   83480:	d8800b17 	ldw	r2,44(sp)
   83484:	45000015 	stw	r20,0(r8)
   83488:	88c7883a 	add	r3,r17,r3
   8348c:	10800044 	addi	r2,r2,1
   83490:	d8800b15 	stw	r2,44(sp)
   83494:	44400115 	stw	r17,4(r8)
   83498:	d8c00c15 	stw	r3,48(sp)
   8349c:	10800208 	cmpgei	r2,r2,8
   834a0:	1000061e 	bne	r2,zero,834bc <___vfiprintf_internal_r+0x57c>
   834a4:	42000204 	addi	r8,r8,8
   834a8:	d8c00117 	ldw	r3,4(sp)
   834ac:	80800003 	ldbu	r2,0(r16)
   834b0:	1c47883a 	add	r3,r3,r17
   834b4:	d8c00115 	stw	r3,4(sp)
   834b8:	003ed906 	br	83020 <___vfiprintf_internal_r+0xe0>
   834bc:	18025526 	beq	r3,zero,83e14 <___vfiprintf_internal_r+0xed4>
   834c0:	d9000017 	ldw	r4,0(sp)
   834c4:	d9800a04 	addi	r6,sp,40
   834c8:	900b883a 	mov	r5,r18
   834cc:	0082e340 	call	82e34 <__sprint_r.part.0>
   834d0:	103fa81e 	bne	r2,zero,83374 <___vfiprintf_internal_r+0x434>
   834d4:	9811883a 	mov	r8,r19
   834d8:	003ff306 	br	834a8 <___vfiprintf_internal_r+0x568>
   834dc:	d8000b15 	stw	zero,44(sp)
   834e0:	8400010c 	andi	r16,r16,4
   834e4:	80022726 	beq	r16,zero,83d84 <___vfiprintf_internal_r+0xe44>
   834e8:	8da1c83a 	sub	r16,r17,r22
   834ec:	0402250e 	bge	zero,r16,83d84 <___vfiprintf_internal_r+0xe44>
   834f0:	9811883a 	mov	r8,r19
   834f4:	80c00450 	cmplti	r3,r16,17
   834f8:	d9000b17 	ldw	r4,44(sp)
   834fc:	01c002b4 	movhi	r7,10
   83500:	1803141e 	bne	r3,zero,84154 <___vfiprintf_internal_r+0x1214>
   83504:	39e64b04 	addi	r7,r7,-26324
   83508:	05400404 	movi	r21,16
   8350c:	00000606 	br	83528 <___vfiprintf_internal_r+0x5e8>
   83510:	21400084 	addi	r5,r4,2
   83514:	42000204 	addi	r8,r8,8
   83518:	1809883a 	mov	r4,r3
   8351c:	843ffc04 	addi	r16,r16,-16
   83520:	80c00448 	cmpgei	r3,r16,17
   83524:	18001726 	beq	r3,zero,83584 <___vfiprintf_internal_r+0x644>
   83528:	20c00044 	addi	r3,r4,1
   8352c:	10800404 	addi	r2,r2,16
   83530:	41c00015 	stw	r7,0(r8)
   83534:	45400115 	stw	r21,4(r8)
   83538:	d8800c15 	stw	r2,48(sp)
   8353c:	d8c00b15 	stw	r3,44(sp)
   83540:	19400208 	cmpgei	r5,r3,8
   83544:	283ff226 	beq	r5,zero,83510 <___vfiprintf_internal_r+0x5d0>
   83548:	d9000017 	ldw	r4,0(sp)
   8354c:	d9800a04 	addi	r6,sp,40
   83550:	900b883a 	mov	r5,r18
   83554:	10013426 	beq	r2,zero,83a28 <___vfiprintf_internal_r+0xae8>
   83558:	d9c00215 	stw	r7,8(sp)
   8355c:	0082e340 	call	82e34 <__sprint_r.part.0>
   83560:	103f841e 	bne	r2,zero,83374 <___vfiprintf_internal_r+0x434>
   83564:	d9000b17 	ldw	r4,44(sp)
   83568:	843ffc04 	addi	r16,r16,-16
   8356c:	80c00448 	cmpgei	r3,r16,17
   83570:	d8800c17 	ldw	r2,48(sp)
   83574:	d9c00217 	ldw	r7,8(sp)
   83578:	9811883a 	mov	r8,r19
   8357c:	21400044 	addi	r5,r4,1
   83580:	183fe91e 	bne	r3,zero,83528 <___vfiprintf_internal_r+0x5e8>
   83584:	1405883a 	add	r2,r2,r16
   83588:	d9400b15 	stw	r5,44(sp)
   8358c:	41c00015 	stw	r7,0(r8)
   83590:	44000115 	stw	r16,4(r8)
   83594:	d8800c15 	stw	r2,48(sp)
   83598:	29400210 	cmplti	r5,r5,8
   8359c:	283f691e 	bne	r5,zero,83344 <___vfiprintf_internal_r+0x404>
   835a0:	1001f826 	beq	r2,zero,83d84 <___vfiprintf_internal_r+0xe44>
   835a4:	d9000017 	ldw	r4,0(sp)
   835a8:	d9800a04 	addi	r6,sp,40
   835ac:	900b883a 	mov	r5,r18
   835b0:	0082e340 	call	82e34 <__sprint_r.part.0>
   835b4:	103f6f1e 	bne	r2,zero,83374 <___vfiprintf_internal_r+0x434>
   835b8:	d8800c17 	ldw	r2,48(sp)
   835bc:	003f6106 	br	83344 <___vfiprintf_internal_r+0x404>
   835c0:	d8c00317 	ldw	r3,12(sp)
   835c4:	8080040c 	andi	r2,r16,16
   835c8:	1d800017 	ldw	r22,0(r3)
   835cc:	18c00104 	addi	r3,r3,4
   835d0:	d8c00315 	stw	r3,12(sp)
   835d4:	1000231e 	bne	r2,zero,83664 <___vfiprintf_internal_r+0x724>
   835d8:	8080100c 	andi	r2,r16,64
   835dc:	10002126 	beq	r2,zero,83664 <___vfiprintf_internal_r+0x724>
   835e0:	b5bfffcc 	andi	r22,r22,65535
   835e4:	b5a0001c 	xori	r22,r22,32768
   835e8:	b5a00004 	addi	r22,r22,-32768
   835ec:	b02bd7fa 	srai	r21,r22,31
   835f0:	a805883a 	mov	r2,r21
   835f4:	103f930e 	bge	r2,zero,83444 <___vfiprintf_internal_r+0x504>
   835f8:	00800b44 	movi	r2,45
   835fc:	b006c03a 	cmpne	r3,r22,zero
   83600:	056bc83a 	sub	r21,zero,r21
   83604:	d8800945 	stb	r2,37(sp)
   83608:	48bfffd8 	cmpnei	r2,r9,-1
   8360c:	a8ebc83a 	sub	r21,r21,r3
   83610:	05adc83a 	sub	r22,zero,r22
   83614:	10000226 	beq	r2,zero,83620 <___vfiprintf_internal_r+0x6e0>
   83618:	00bfdfc4 	movi	r2,-129
   8361c:	80a0703a 	and	r16,r16,r2
   83620:	03000b44 	movi	r12,45
   83624:	a800d71e 	bne	r21,zero,83984 <___vfiprintf_internal_r+0xa44>
   83628:	b08002a8 	cmpgeui	r2,r22,10
   8362c:	1000d51e 	bne	r2,zero,83984 <___vfiprintf_internal_r+0xa44>
   83630:	b5800c04 	addi	r22,r22,48
   83634:	dd8016c5 	stb	r22,91(sp)
   83638:	482d883a 	mov	r22,r9
   8363c:	02400116 	blt	zero,r9,83644 <___vfiprintf_internal_r+0x704>
   83640:	05800044 	movi	r22,1
   83644:	05400044 	movi	r21,1
   83648:	df0016c4 	addi	fp,sp,91
   8364c:	63003fcc 	andi	r12,r12,255
   83650:	6300201c 	xori	r12,r12,128
   83654:	633fe004 	addi	r12,r12,-128
   83658:	603ef226 	beq	r12,zero,83224 <___vfiprintf_internal_r+0x2e4>
   8365c:	b5800044 	addi	r22,r22,1
   83660:	003ef006 	br	83224 <___vfiprintf_internal_r+0x2e4>
   83664:	b02bd7fa 	srai	r21,r22,31
   83668:	a805883a 	mov	r2,r21
   8366c:	003f7406 	br	83440 <___vfiprintf_internal_r+0x500>
   83670:	d8800317 	ldw	r2,12(sp)
   83674:	14400017 	ldw	r17,0(r2)
   83678:	17000104 	addi	fp,r2,4
   8367c:	8802250e 	bge	r17,zero,83f14 <___vfiprintf_internal_r+0xfd4>
   83680:	0463c83a 	sub	r17,zero,r17
   83684:	df000315 	stw	fp,12(sp)
   83688:	a0800007 	ldb	r2,0(r20)
   8368c:	84000114 	ori	r16,r16,4
   83690:	003e6d06 	br	83048 <___vfiprintf_internal_r+0x108>
   83694:	a0800007 	ldb	r2,0(r20)
   83698:	a0c00044 	addi	r3,r20,1
   8369c:	11000aa0 	cmpeqi	r4,r2,42
   836a0:	2002bc1e 	bne	r4,zero,84194 <___vfiprintf_internal_r+0x1254>
   836a4:	113ff404 	addi	r4,r2,-48
   836a8:	214002b0 	cmpltui	r5,r4,10
   836ac:	1829883a 	mov	r20,r3
   836b0:	0013883a 	mov	r9,zero
   836b4:	283e6526 	beq	r5,zero,8304c <___vfiprintf_internal_r+0x10c>
   836b8:	480690ba 	slli	r3,r9,2
   836bc:	a0800007 	ldb	r2,0(r20)
   836c0:	a5000044 	addi	r20,r20,1
   836c4:	1a47883a 	add	r3,r3,r9
   836c8:	18c7883a 	add	r3,r3,r3
   836cc:	1913883a 	add	r9,r3,r4
   836d0:	113ff404 	addi	r4,r2,-48
   836d4:	20c002b0 	cmpltui	r3,r4,10
   836d8:	183ff71e 	bne	r3,zero,836b8 <___vfiprintf_internal_r+0x778>
   836dc:	003e5b06 	br	8304c <___vfiprintf_internal_r+0x10c>
   836e0:	a0800007 	ldb	r2,0(r20)
   836e4:	84002014 	ori	r16,r16,128
   836e8:	003e5706 	br	83048 <___vfiprintf_internal_r+0x108>
   836ec:	00c00ac4 	movi	r3,43
   836f0:	a0800007 	ldb	r2,0(r20)
   836f4:	d8c00945 	stb	r3,37(sp)
   836f8:	003e5306 	br	83048 <___vfiprintf_internal_r+0x108>
   836fc:	a0800007 	ldb	r2,0(r20)
   83700:	84000054 	ori	r16,r16,1
   83704:	003e5006 	br	83048 <___vfiprintf_internal_r+0x108>
   83708:	d8c00947 	ldb	r3,37(sp)
   8370c:	a0800003 	ldbu	r2,0(r20)
   83710:	1800091e 	bne	r3,zero,83738 <___vfiprintf_internal_r+0x7f8>
   83714:	10803fcc 	andi	r2,r2,255
   83718:	00c00804 	movi	r3,32
   8371c:	1080201c 	xori	r2,r2,128
   83720:	d8c00945 	stb	r3,37(sp)
   83724:	10bfe004 	addi	r2,r2,-128
   83728:	003e4706 	br	83048 <___vfiprintf_internal_r+0x108>
   8372c:	a0800043 	ldbu	r2,1(r20)
   83730:	84000814 	ori	r16,r16,32
   83734:	a5000044 	addi	r20,r20,1
   83738:	10803fcc 	andi	r2,r2,255
   8373c:	1080201c 	xori	r2,r2,128
   83740:	10bfe004 	addi	r2,r2,-128
   83744:	003e4006 	br	83048 <___vfiprintf_internal_r+0x108>
   83748:	8080080c 	andi	r2,r16,32
   8374c:	1001fb26 	beq	r2,zero,83f3c <___vfiprintf_internal_r+0xffc>
   83750:	d9000117 	ldw	r4,4(sp)
   83754:	d8800317 	ldw	r2,12(sp)
   83758:	2007d7fa 	srai	r3,r4,31
   8375c:	10800017 	ldw	r2,0(r2)
   83760:	11000015 	stw	r4,0(r2)
   83764:	10c00115 	stw	r3,4(r2)
   83768:	d8800317 	ldw	r2,12(sp)
   8376c:	10800104 	addi	r2,r2,4
   83770:	d8800315 	stw	r2,12(sp)
   83774:	003e1e06 	br	82ff0 <___vfiprintf_internal_r+0xb0>
   83778:	a0800007 	ldb	r2,0(r20)
   8377c:	10c01b18 	cmpnei	r3,r2,108
   83780:	183fea26 	beq	r3,zero,8372c <___vfiprintf_internal_r+0x7ec>
   83784:	84000414 	ori	r16,r16,16
   83788:	003e2f06 	br	83048 <___vfiprintf_internal_r+0x108>
   8378c:	a0800007 	ldb	r2,0(r20)
   83790:	84001014 	ori	r16,r16,64
   83794:	003e2c06 	br	83048 <___vfiprintf_internal_r+0x108>
   83798:	d8c00317 	ldw	r3,12(sp)
   8379c:	d8000945 	stb	zero,37(sp)
   837a0:	05800044 	movi	r22,1
   837a4:	18800017 	ldw	r2,0(r3)
   837a8:	18c00104 	addi	r3,r3,4
   837ac:	d8c00315 	stw	r3,12(sp)
   837b0:	d8800d05 	stb	r2,52(sp)
   837b4:	05400044 	movi	r21,1
   837b8:	df000d04 	addi	fp,sp,52
   837bc:	003e9806 	br	83220 <___vfiprintf_internal_r+0x2e0>
   837c0:	80800414 	ori	r2,r16,16
   837c4:	10c0080c 	andi	r3,r2,32
   837c8:	18019426 	beq	r3,zero,83e1c <___vfiprintf_internal_r+0xedc>
   837cc:	d8c00317 	ldw	r3,12(sp)
   837d0:	d8000945 	stb	zero,37(sp)
   837d4:	1d800017 	ldw	r22,0(r3)
   837d8:	1d400117 	ldw	r21,4(r3)
   837dc:	18c00204 	addi	r3,r3,8
   837e0:	d8c00315 	stw	r3,12(sp)
   837e4:	48ffffd8 	cmpnei	r3,r9,-1
   837e8:	18019926 	beq	r3,zero,83e50 <___vfiprintf_internal_r+0xf10>
   837ec:	00c00044 	movi	r3,1
   837f0:	043fdfc4 	movi	r16,-129
   837f4:	b548b03a 	or	r4,r22,r21
   837f8:	1420703a 	and	r16,r2,r16
   837fc:	2000191e 	bne	r4,zero,83864 <___vfiprintf_internal_r+0x924>
   83800:	4802291e 	bne	r9,zero,840a8 <___vfiprintf_internal_r+0x1168>
   83804:	1801bf1e 	bne	r3,zero,83f04 <___vfiprintf_internal_r+0xfc4>
   83808:	1540004c 	andi	r21,r2,1
   8380c:	a801c426 	beq	r21,zero,83f20 <___vfiprintf_internal_r+0xfe0>
   83810:	00800c04 	movi	r2,48
   83814:	d88016c5 	stb	r2,91(sp)
   83818:	a82d883a 	mov	r22,r21
   8381c:	df0016c4 	addi	fp,sp,91
   83820:	003e8006 	br	83224 <___vfiprintf_internal_r+0x2e4>
   83824:	80800414 	ori	r2,r16,16
   83828:	10c0080c 	andi	r3,r2,32
   8382c:	18018b26 	beq	r3,zero,83e5c <___vfiprintf_internal_r+0xf1c>
   83830:	d8c00317 	ldw	r3,12(sp)
   83834:	d8000945 	stb	zero,37(sp)
   83838:	1d800017 	ldw	r22,0(r3)
   8383c:	1d400117 	ldw	r21,4(r3)
   83840:	18c00204 	addi	r3,r3,8
   83844:	d8c00315 	stw	r3,12(sp)
   83848:	48ffffd8 	cmpnei	r3,r9,-1
   8384c:	18019026 	beq	r3,zero,83e90 <___vfiprintf_internal_r+0xf50>
   83850:	043fdfc4 	movi	r16,-129
   83854:	b548b03a 	or	r4,r22,r21
   83858:	0007883a 	mov	r3,zero
   8385c:	1420703a 	and	r16,r2,r16
   83860:	203fe726 	beq	r4,zero,83800 <___vfiprintf_internal_r+0x8c0>
   83864:	18800060 	cmpeqi	r2,r3,1
   83868:	10025a1e 	bne	r2,zero,841d4 <___vfiprintf_internal_r+0x1294>
   8386c:	18c000a0 	cmpeqi	r3,r3,2
   83870:	18014b1e 	bne	r3,zero,83da0 <___vfiprintf_internal_r+0xe60>
   83874:	9839883a 	mov	fp,r19
   83878:	a808977a 	slli	r4,r21,29
   8387c:	b006d0fa 	srli	r3,r22,3
   83880:	a82ad0fa 	srli	r21,r21,3
   83884:	b08001cc 	andi	r2,r22,7
   83888:	10800c04 	addi	r2,r2,48
   8388c:	20ecb03a 	or	r22,r4,r3
   83890:	e0bfffc5 	stb	r2,-1(fp)
   83894:	b546b03a 	or	r3,r22,r21
   83898:	e00b883a 	mov	r5,fp
   8389c:	e73fffc4 	addi	fp,fp,-1
   838a0:	183ff51e 	bne	r3,zero,83878 <___vfiprintf_internal_r+0x938>
   838a4:	80c0004c 	andi	r3,r16,1
   838a8:	18014a26 	beq	r3,zero,83dd4 <___vfiprintf_internal_r+0xe94>
   838ac:	10800c18 	cmpnei	r2,r2,48
   838b0:	10014826 	beq	r2,zero,83dd4 <___vfiprintf_internal_r+0xe94>
   838b4:	297fff84 	addi	r5,r5,-2
   838b8:	00800c04 	movi	r2,48
   838bc:	e0bfffc5 	stb	r2,-1(fp)
   838c0:	996bc83a 	sub	r21,r19,r5
   838c4:	482d883a 	mov	r22,r9
   838c8:	4d41a916 	blt	r9,r21,83f70 <___vfiprintf_internal_r+0x1030>
   838cc:	2839883a 	mov	fp,r5
   838d0:	003e5406 	br	83224 <___vfiprintf_internal_r+0x2e4>
   838d4:	d8800317 	ldw	r2,12(sp)
   838d8:	d8000945 	stb	zero,37(sp)
   838dc:	17000017 	ldw	fp,0(r2)
   838e0:	10c00104 	addi	r3,r2,4
   838e4:	e001f926 	beq	fp,zero,840cc <___vfiprintf_internal_r+0x118c>
   838e8:	48bfffe0 	cmpeqi	r2,r9,-1
   838ec:	1001a31e 	bne	r2,zero,83f7c <___vfiprintf_internal_r+0x103c>
   838f0:	480d883a 	mov	r6,r9
   838f4:	000b883a 	mov	r5,zero
   838f8:	e009883a 	mov	r4,fp
   838fc:	d8c00415 	stw	r3,16(sp)
   83900:	da000315 	stw	r8,12(sp)
   83904:	da400215 	stw	r9,8(sp)
   83908:	00876840 	call	87684 <memchr>
   8390c:	da400217 	ldw	r9,8(sp)
   83910:	da000317 	ldw	r8,12(sp)
   83914:	d8c00417 	ldw	r3,16(sp)
   83918:	10020726 	beq	r2,zero,84138 <___vfiprintf_internal_r+0x11f8>
   8391c:	172bc83a 	sub	r21,r2,fp
   83920:	db000943 	ldbu	r12,37(sp)
   83924:	a82d883a 	mov	r22,r21
   83928:	a8019e16 	blt	r21,zero,83fa4 <___vfiprintf_internal_r+0x1064>
   8392c:	d8c00315 	stw	r3,12(sp)
   83930:	0013883a 	mov	r9,zero
   83934:	003f4506 	br	8364c <___vfiprintf_internal_r+0x70c>
   83938:	a0800007 	ldb	r2,0(r20)
   8393c:	84000814 	ori	r16,r16,32
   83940:	003dc106 	br	83048 <___vfiprintf_internal_r+0x108>
   83944:	d9000317 	ldw	r4,12(sp)
   83948:	00de0c04 	movi	r3,30768
   8394c:	014002b4 	movhi	r5,10
   83950:	d8c0098d 	sth	r3,38(sp)
   83954:	25800017 	ldw	r22,0(r4)
   83958:	20c00104 	addi	r3,r4,4
   8395c:	d8c00315 	stw	r3,12(sp)
   83960:	28e63704 	addi	r3,r5,-26404
   83964:	002b883a 	mov	r21,zero
   83968:	80800094 	ori	r2,r16,2
   8396c:	d8c00515 	stw	r3,20(sp)
   83970:	d8000945 	stb	zero,37(sp)
   83974:	48ffffd8 	cmpnei	r3,r9,-1
   83978:	18010826 	beq	r3,zero,83d9c <___vfiprintf_internal_r+0xe5c>
   8397c:	00c00084 	movi	r3,2
   83980:	003f9b06 	br	837f0 <___vfiprintf_internal_r+0x8b0>
   83984:	9839883a 	mov	fp,r19
   83988:	b009883a 	mov	r4,r22
   8398c:	a80b883a 	mov	r5,r21
   83990:	01800284 	movi	r6,10
   83994:	000f883a 	mov	r7,zero
   83998:	db000615 	stw	r12,24(sp)
   8399c:	da000415 	stw	r8,16(sp)
   839a0:	da400215 	stw	r9,8(sp)
   839a4:	0093f900 	call	93f90 <__umoddi3>
   839a8:	10800c04 	addi	r2,r2,48
   839ac:	b009883a 	mov	r4,r22
   839b0:	a80b883a 	mov	r5,r21
   839b4:	e0bfffc5 	stb	r2,-1(fp)
   839b8:	01800284 	movi	r6,10
   839bc:	000f883a 	mov	r7,zero
   839c0:	00939b80 	call	939b8 <__udivdi3>
   839c4:	a809883a 	mov	r4,r21
   839c8:	b00b883a 	mov	r5,r22
   839cc:	da400217 	ldw	r9,8(sp)
   839d0:	da000417 	ldw	r8,16(sp)
   839d4:	db000617 	ldw	r12,24(sp)
   839d8:	e73fffc4 	addi	fp,fp,-1
   839dc:	102d883a 	mov	r22,r2
   839e0:	182b883a 	mov	r21,r3
   839e4:	203fe81e 	bne	r4,zero,83988 <___vfiprintf_internal_r+0xa48>
   839e8:	294002a8 	cmpgeui	r5,r5,10
   839ec:	283fe61e 	bne	r5,zero,83988 <___vfiprintf_internal_r+0xa48>
   839f0:	9f2bc83a 	sub	r21,r19,fp
   839f4:	482d883a 	mov	r22,r9
   839f8:	4d7f140e 	bge	r9,r21,8364c <___vfiprintf_internal_r+0x70c>
   839fc:	a82d883a 	mov	r22,r21
   83a00:	003f1206 	br	8364c <___vfiprintf_internal_r+0x70c>
   83a04:	00c00044 	movi	r3,1
   83a08:	a805883a 	mov	r2,r21
   83a0c:	df001715 	stw	fp,92(sp)
   83a10:	dd401815 	stw	r21,96(sp)
   83a14:	dd400c15 	stw	r21,48(sp)
   83a18:	d8c00b15 	stw	r3,44(sp)
   83a1c:	9811883a 	mov	r8,r19
   83a20:	42000204 	addi	r8,r8,8
   83a24:	003e4306 	br	83334 <___vfiprintf_internal_r+0x3f4>
   83a28:	01400044 	movi	r5,1
   83a2c:	0009883a 	mov	r4,zero
   83a30:	9811883a 	mov	r8,r19
   83a34:	003eb906 	br	8351c <___vfiprintf_internal_r+0x5dc>
   83a38:	8d87c83a 	sub	r3,r17,r22
   83a3c:	00fe2c0e 	bge	zero,r3,832f0 <___vfiprintf_internal_r+0x3b0>
   83a40:	19800450 	cmplti	r6,r3,17
   83a44:	3001c61e 	bne	r6,zero,84160 <___vfiprintf_internal_r+0x1220>
   83a48:	014002b4 	movhi	r5,10
   83a4c:	29664704 	addi	r5,r5,-26340
   83a50:	d9400415 	stw	r5,16(sp)
   83a54:	01c00404 	movi	r7,16
   83a58:	00000606 	br	83a74 <___vfiprintf_internal_r+0xb34>
   83a5c:	21800084 	addi	r6,r4,2
   83a60:	42000204 	addi	r8,r8,8
   83a64:	2809883a 	mov	r4,r5
   83a68:	18fffc04 	addi	r3,r3,-16
   83a6c:	19400448 	cmpgei	r5,r3,17
   83a70:	28001b26 	beq	r5,zero,83ae0 <___vfiprintf_internal_r+0xba0>
   83a74:	d9800417 	ldw	r6,16(sp)
   83a78:	21400044 	addi	r5,r4,1
   83a7c:	10800404 	addi	r2,r2,16
   83a80:	41800015 	stw	r6,0(r8)
   83a84:	41c00115 	stw	r7,4(r8)
   83a88:	d8800c15 	stw	r2,48(sp)
   83a8c:	d9400b15 	stw	r5,44(sp)
   83a90:	29800208 	cmpgei	r6,r5,8
   83a94:	303ff126 	beq	r6,zero,83a5c <___vfiprintf_internal_r+0xb1c>
   83a98:	d9000017 	ldw	r4,0(sp)
   83a9c:	d9800a04 	addi	r6,sp,40
   83aa0:	900b883a 	mov	r5,r18
   83aa4:	10005c26 	beq	r2,zero,83c18 <___vfiprintf_internal_r+0xcd8>
   83aa8:	d8c00615 	stw	r3,24(sp)
   83aac:	da400215 	stw	r9,8(sp)
   83ab0:	0082e340 	call	82e34 <__sprint_r.part.0>
   83ab4:	103e2f1e 	bne	r2,zero,83374 <___vfiprintf_internal_r+0x434>
   83ab8:	d8c00617 	ldw	r3,24(sp)
   83abc:	d9000b17 	ldw	r4,44(sp)
   83ac0:	d8800c17 	ldw	r2,48(sp)
   83ac4:	18fffc04 	addi	r3,r3,-16
   83ac8:	19400448 	cmpgei	r5,r3,17
   83acc:	da400217 	ldw	r9,8(sp)
   83ad0:	9811883a 	mov	r8,r19
   83ad4:	21800044 	addi	r6,r4,1
   83ad8:	01c00404 	movi	r7,16
   83adc:	283fe51e 	bne	r5,zero,83a74 <___vfiprintf_internal_r+0xb34>
   83ae0:	d9000417 	ldw	r4,16(sp)
   83ae4:	10c5883a 	add	r2,r2,r3
   83ae8:	40c00115 	stw	r3,4(r8)
   83aec:	41000015 	stw	r4,0(r8)
   83af0:	d8800c15 	stw	r2,48(sp)
   83af4:	d9800b15 	stw	r6,44(sp)
   83af8:	30c00208 	cmpgei	r3,r6,8
   83afc:	18010b26 	beq	r3,zero,83f2c <___vfiprintf_internal_r+0xfec>
   83b00:	10017e26 	beq	r2,zero,840fc <___vfiprintf_internal_r+0x11bc>
   83b04:	d9000017 	ldw	r4,0(sp)
   83b08:	d9800a04 	addi	r6,sp,40
   83b0c:	900b883a 	mov	r5,r18
   83b10:	da400215 	stw	r9,8(sp)
   83b14:	0082e340 	call	82e34 <__sprint_r.part.0>
   83b18:	103e161e 	bne	r2,zero,83374 <___vfiprintf_internal_r+0x434>
   83b1c:	da400217 	ldw	r9,8(sp)
   83b20:	d9000b17 	ldw	r4,44(sp)
   83b24:	d8800c17 	ldw	r2,48(sp)
   83b28:	4d53c83a 	sub	r9,r9,r21
   83b2c:	9811883a 	mov	r8,r19
   83b30:	21400044 	addi	r5,r4,1
   83b34:	027df00e 	bge	zero,r9,832f8 <___vfiprintf_internal_r+0x3b8>
   83b38:	48c00450 	cmplti	r3,r9,17
   83b3c:	18016b1e 	bne	r3,zero,840ec <___vfiprintf_internal_r+0x11ac>
   83b40:	ddc00415 	stw	r23,16(sp)
   83b44:	01c00404 	movi	r7,16
   83b48:	00000606 	br	83b64 <___vfiprintf_internal_r+0xc24>
   83b4c:	21400084 	addi	r5,r4,2
   83b50:	42000204 	addi	r8,r8,8
   83b54:	1809883a 	mov	r4,r3
   83b58:	4a7ffc04 	addi	r9,r9,-16
   83b5c:	48c00448 	cmpgei	r3,r9,17
   83b60:	18001826 	beq	r3,zero,83bc4 <___vfiprintf_internal_r+0xc84>
   83b64:	20c00044 	addi	r3,r4,1
   83b68:	10800404 	addi	r2,r2,16
   83b6c:	45c00015 	stw	r23,0(r8)
   83b70:	41c00115 	stw	r7,4(r8)
   83b74:	d8800c15 	stw	r2,48(sp)
   83b78:	d8c00b15 	stw	r3,44(sp)
   83b7c:	19400208 	cmpgei	r5,r3,8
   83b80:	283ff226 	beq	r5,zero,83b4c <___vfiprintf_internal_r+0xc0c>
   83b84:	d9000017 	ldw	r4,0(sp)
   83b88:	d9800a04 	addi	r6,sp,40
   83b8c:	900b883a 	mov	r5,r18
   83b90:	10001726 	beq	r2,zero,83bf0 <___vfiprintf_internal_r+0xcb0>
   83b94:	da400215 	stw	r9,8(sp)
   83b98:	0082e340 	call	82e34 <__sprint_r.part.0>
   83b9c:	103df51e 	bne	r2,zero,83374 <___vfiprintf_internal_r+0x434>
   83ba0:	da400217 	ldw	r9,8(sp)
   83ba4:	d9000b17 	ldw	r4,44(sp)
   83ba8:	d8800c17 	ldw	r2,48(sp)
   83bac:	4a7ffc04 	addi	r9,r9,-16
   83bb0:	48c00448 	cmpgei	r3,r9,17
   83bb4:	9811883a 	mov	r8,r19
   83bb8:	21400044 	addi	r5,r4,1
   83bbc:	01c00404 	movi	r7,16
   83bc0:	183fe81e 	bne	r3,zero,83b64 <___vfiprintf_internal_r+0xc24>
   83bc4:	d8c00417 	ldw	r3,16(sp)
   83bc8:	1245883a 	add	r2,r2,r9
   83bcc:	42400115 	stw	r9,4(r8)
   83bd0:	40c00015 	stw	r3,0(r8)
   83bd4:	d8800c15 	stw	r2,48(sp)
   83bd8:	d9400b15 	stw	r5,44(sp)
   83bdc:	28c00208 	cmpgei	r3,r5,8
   83be0:	1800811e 	bne	r3,zero,83de8 <___vfiprintf_internal_r+0xea8>
   83be4:	42000204 	addi	r8,r8,8
   83be8:	29400044 	addi	r5,r5,1
   83bec:	003dc206 	br	832f8 <___vfiprintf_internal_r+0x3b8>
   83bf0:	01400044 	movi	r5,1
   83bf4:	0009883a 	mov	r4,zero
   83bf8:	9811883a 	mov	r8,r19
   83bfc:	003fd606 	br	83b58 <___vfiprintf_internal_r+0xc18>
   83c00:	d9000017 	ldw	r4,0(sp)
   83c04:	d9800a04 	addi	r6,sp,40
   83c08:	900b883a 	mov	r5,r18
   83c0c:	0082e340 	call	82e34 <__sprint_r.part.0>
   83c10:	103dd226 	beq	r2,zero,8335c <___vfiprintf_internal_r+0x41c>
   83c14:	003dd706 	br	83374 <___vfiprintf_internal_r+0x434>
   83c18:	01800044 	movi	r6,1
   83c1c:	0009883a 	mov	r4,zero
   83c20:	9811883a 	mov	r8,r19
   83c24:	003f9006 	br	83a68 <___vfiprintf_internal_r+0xb28>
   83c28:	10001026 	beq	r2,zero,83c6c <___vfiprintf_internal_r+0xd2c>
   83c2c:	d9000017 	ldw	r4,0(sp)
   83c30:	d9800a04 	addi	r6,sp,40
   83c34:	900b883a 	mov	r5,r18
   83c38:	da400615 	stw	r9,24(sp)
   83c3c:	db000415 	stw	r12,16(sp)
   83c40:	db400215 	stw	r13,8(sp)
   83c44:	0082e340 	call	82e34 <__sprint_r.part.0>
   83c48:	103dca1e 	bne	r2,zero,83374 <___vfiprintf_internal_r+0x434>
   83c4c:	d9000b17 	ldw	r4,44(sp)
   83c50:	d8800c17 	ldw	r2,48(sp)
   83c54:	da400617 	ldw	r9,24(sp)
   83c58:	db000417 	ldw	r12,16(sp)
   83c5c:	db400217 	ldw	r13,8(sp)
   83c60:	9811883a 	mov	r8,r19
   83c64:	21400044 	addi	r5,r4,1
   83c68:	003d8706 	br	83288 <___vfiprintf_internal_r+0x348>
   83c6c:	6800bc26 	beq	r13,zero,83f60 <___vfiprintf_internal_r+0x1020>
   83c70:	d8800984 	addi	r2,sp,38
   83c74:	d8801715 	stw	r2,92(sp)
   83c78:	00800084 	movi	r2,2
   83c7c:	d8801815 	stw	r2,96(sp)
   83c80:	01400044 	movi	r5,1
   83c84:	9811883a 	mov	r8,r19
   83c88:	2809883a 	mov	r4,r5
   83c8c:	42000204 	addi	r8,r8,8
   83c90:	29400044 	addi	r5,r5,1
   83c94:	003d9406 	br	832e8 <___vfiprintf_internal_r+0x3a8>
   83c98:	19400450 	cmplti	r5,r3,17
   83c9c:	01c002b4 	movhi	r7,10
   83ca0:	2801291e 	bne	r5,zero,84148 <___vfiprintf_internal_r+0x1208>
   83ca4:	39e64b04 	addi	r7,r7,-26324
   83ca8:	03800404 	movi	r14,16
   83cac:	00000706 	br	83ccc <___vfiprintf_internal_r+0xd8c>
   83cb0:	23c00084 	addi	r15,r4,2
   83cb4:	42000204 	addi	r8,r8,8
   83cb8:	3009883a 	mov	r4,r6
   83cbc:	18fffc04 	addi	r3,r3,-16
   83cc0:	19400448 	cmpgei	r5,r3,17
   83cc4:	28002026 	beq	r5,zero,83d48 <___vfiprintf_internal_r+0xe08>
   83cc8:	21800044 	addi	r6,r4,1
   83ccc:	10800404 	addi	r2,r2,16
   83cd0:	41c00015 	stw	r7,0(r8)
   83cd4:	43800115 	stw	r14,4(r8)
   83cd8:	d8800c15 	stw	r2,48(sp)
   83cdc:	d9800b15 	stw	r6,44(sp)
   83ce0:	31400208 	cmpgei	r5,r6,8
   83ce4:	283ff226 	beq	r5,zero,83cb0 <___vfiprintf_internal_r+0xd70>
   83ce8:	d9000017 	ldw	r4,0(sp)
   83cec:	d9800a04 	addi	r6,sp,40
   83cf0:	900b883a 	mov	r5,r18
   83cf4:	10001f26 	beq	r2,zero,83d74 <___vfiprintf_internal_r+0xe34>
   83cf8:	d9c00815 	stw	r7,32(sp)
   83cfc:	d8c00715 	stw	r3,28(sp)
   83d00:	da400615 	stw	r9,24(sp)
   83d04:	db000415 	stw	r12,16(sp)
   83d08:	db400215 	stw	r13,8(sp)
   83d0c:	0082e340 	call	82e34 <__sprint_r.part.0>
   83d10:	103d981e 	bne	r2,zero,83374 <___vfiprintf_internal_r+0x434>
   83d14:	d8c00717 	ldw	r3,28(sp)
   83d18:	d9000b17 	ldw	r4,44(sp)
   83d1c:	d8800c17 	ldw	r2,48(sp)
   83d20:	18fffc04 	addi	r3,r3,-16
   83d24:	19400448 	cmpgei	r5,r3,17
   83d28:	d9c00817 	ldw	r7,32(sp)
   83d2c:	da400617 	ldw	r9,24(sp)
   83d30:	db000417 	ldw	r12,16(sp)
   83d34:	db400217 	ldw	r13,8(sp)
   83d38:	9811883a 	mov	r8,r19
   83d3c:	23c00044 	addi	r15,r4,1
   83d40:	03800404 	movi	r14,16
   83d44:	283fe01e 	bne	r5,zero,83cc8 <___vfiprintf_internal_r+0xd88>
   83d48:	10c5883a 	add	r2,r2,r3
   83d4c:	40c00115 	stw	r3,4(r8)
   83d50:	41c00015 	stw	r7,0(r8)
   83d54:	d8800c15 	stw	r2,48(sp)
   83d58:	dbc00b15 	stw	r15,44(sp)
   83d5c:	78c00208 	cmpgei	r3,r15,8
   83d60:	1800511e 	bne	r3,zero,83ea8 <___vfiprintf_internal_r+0xf68>
   83d64:	42000204 	addi	r8,r8,8
   83d68:	79400044 	addi	r5,r15,1
   83d6c:	7809883a 	mov	r4,r15
   83d70:	003d3706 	br	83250 <___vfiprintf_internal_r+0x310>
   83d74:	0009883a 	mov	r4,zero
   83d78:	03c00044 	movi	r15,1
   83d7c:	9811883a 	mov	r8,r19
   83d80:	003fce06 	br	83cbc <___vfiprintf_internal_r+0xd7c>
   83d84:	8d80010e 	bge	r17,r22,83d8c <___vfiprintf_internal_r+0xe4c>
   83d88:	b023883a 	mov	r17,r22
   83d8c:	d8800117 	ldw	r2,4(sp)
   83d90:	1445883a 	add	r2,r2,r17
   83d94:	d8800115 	stw	r2,4(sp)
   83d98:	003d7006 	br	8335c <___vfiprintf_internal_r+0x41c>
   83d9c:	1021883a 	mov	r16,r2
   83da0:	9839883a 	mov	fp,r19
   83da4:	d9000517 	ldw	r4,20(sp)
   83da8:	b08003cc 	andi	r2,r22,15
   83dac:	a806973a 	slli	r3,r21,28
   83db0:	b02cd13a 	srli	r22,r22,4
   83db4:	2085883a 	add	r2,r4,r2
   83db8:	10800003 	ldbu	r2,0(r2)
   83dbc:	a82ad13a 	srli	r21,r21,4
   83dc0:	1dacb03a 	or	r22,r3,r22
   83dc4:	e0bfffc5 	stb	r2,-1(fp)
   83dc8:	b544b03a 	or	r2,r22,r21
   83dcc:	e73fffc4 	addi	fp,fp,-1
   83dd0:	103ff41e 	bne	r2,zero,83da4 <___vfiprintf_internal_r+0xe64>
   83dd4:	9f2bc83a 	sub	r21,r19,fp
   83dd8:	482d883a 	mov	r22,r9
   83ddc:	4d7d110e 	bge	r9,r21,83224 <___vfiprintf_internal_r+0x2e4>
   83de0:	a82d883a 	mov	r22,r21
   83de4:	003d0f06 	br	83224 <___vfiprintf_internal_r+0x2e4>
   83de8:	103f0626 	beq	r2,zero,83a04 <___vfiprintf_internal_r+0xac4>
   83dec:	d9000017 	ldw	r4,0(sp)
   83df0:	d9800a04 	addi	r6,sp,40
   83df4:	900b883a 	mov	r5,r18
   83df8:	0082e340 	call	82e34 <__sprint_r.part.0>
   83dfc:	103d5d1e 	bne	r2,zero,83374 <___vfiprintf_internal_r+0x434>
   83e00:	d9400b17 	ldw	r5,44(sp)
   83e04:	d8800c17 	ldw	r2,48(sp)
   83e08:	9811883a 	mov	r8,r19
   83e0c:	29400044 	addi	r5,r5,1
   83e10:	003d3906 	br	832f8 <___vfiprintf_internal_r+0x3b8>
   83e14:	d8000b15 	stw	zero,44(sp)
   83e18:	003dae06 	br	834d4 <___vfiprintf_internal_r+0x594>
   83e1c:	d9000317 	ldw	r4,12(sp)
   83e20:	10c0040c 	andi	r3,r2,16
   83e24:	25800017 	ldw	r22,0(r4)
   83e28:	21000104 	addi	r4,r4,4
   83e2c:	d9000315 	stw	r4,12(sp)
   83e30:	1800031e 	bne	r3,zero,83e40 <___vfiprintf_internal_r+0xf00>
   83e34:	10c0100c 	andi	r3,r2,64
   83e38:	18000126 	beq	r3,zero,83e40 <___vfiprintf_internal_r+0xf00>
   83e3c:	b5bfffcc 	andi	r22,r22,65535
   83e40:	d8000945 	stb	zero,37(sp)
   83e44:	48ffffd8 	cmpnei	r3,r9,-1
   83e48:	002b883a 	mov	r21,zero
   83e4c:	183e671e 	bne	r3,zero,837ec <___vfiprintf_internal_r+0x8ac>
   83e50:	1021883a 	mov	r16,r2
   83e54:	0019883a 	mov	r12,zero
   83e58:	003df206 	br	83624 <___vfiprintf_internal_r+0x6e4>
   83e5c:	d9000317 	ldw	r4,12(sp)
   83e60:	10c0040c 	andi	r3,r2,16
   83e64:	25800017 	ldw	r22,0(r4)
   83e68:	21000104 	addi	r4,r4,4
   83e6c:	d9000315 	stw	r4,12(sp)
   83e70:	1800031e 	bne	r3,zero,83e80 <___vfiprintf_internal_r+0xf40>
   83e74:	10c0100c 	andi	r3,r2,64
   83e78:	18000126 	beq	r3,zero,83e80 <___vfiprintf_internal_r+0xf40>
   83e7c:	b5bfffcc 	andi	r22,r22,65535
   83e80:	d8000945 	stb	zero,37(sp)
   83e84:	48ffffd8 	cmpnei	r3,r9,-1
   83e88:	002b883a 	mov	r21,zero
   83e8c:	183e701e 	bne	r3,zero,83850 <___vfiprintf_internal_r+0x910>
   83e90:	1021883a 	mov	r16,r2
   83e94:	003e7706 	br	83874 <___vfiprintf_internal_r+0x934>
   83e98:	01400044 	movi	r5,1
   83e9c:	0009883a 	mov	r4,zero
   83ea0:	9811883a 	mov	r8,r19
   83ea4:	003d1006 	br	832e8 <___vfiprintf_internal_r+0x3a8>
   83ea8:	10005f26 	beq	r2,zero,84028 <___vfiprintf_internal_r+0x10e8>
   83eac:	d9000017 	ldw	r4,0(sp)
   83eb0:	d9800a04 	addi	r6,sp,40
   83eb4:	900b883a 	mov	r5,r18
   83eb8:	da400615 	stw	r9,24(sp)
   83ebc:	db000415 	stw	r12,16(sp)
   83ec0:	db400215 	stw	r13,8(sp)
   83ec4:	0082e340 	call	82e34 <__sprint_r.part.0>
   83ec8:	103d2a1e 	bne	r2,zero,83374 <___vfiprintf_internal_r+0x434>
   83ecc:	d9000b17 	ldw	r4,44(sp)
   83ed0:	d8800c17 	ldw	r2,48(sp)
   83ed4:	da400617 	ldw	r9,24(sp)
   83ed8:	db000417 	ldw	r12,16(sp)
   83edc:	db400217 	ldw	r13,8(sp)
   83ee0:	9811883a 	mov	r8,r19
   83ee4:	21400044 	addi	r5,r4,1
   83ee8:	003cd906 	br	83250 <___vfiprintf_internal_r+0x310>
   83eec:	d8000945 	stb	zero,37(sp)
   83ef0:	48bfffd8 	cmpnei	r2,r9,-1
   83ef4:	103faa26 	beq	r2,zero,83da0 <___vfiprintf_internal_r+0xe60>
   83ef8:	00bfdfc4 	movi	r2,-129
   83efc:	80a0703a 	and	r16,r16,r2
   83f00:	4800661e 	bne	r9,zero,8409c <___vfiprintf_internal_r+0x115c>
   83f04:	002d883a 	mov	r22,zero
   83f08:	002b883a 	mov	r21,zero
   83f0c:	9839883a 	mov	fp,r19
   83f10:	003cc406 	br	83224 <___vfiprintf_internal_r+0x2e4>
   83f14:	a0800007 	ldb	r2,0(r20)
   83f18:	df000315 	stw	fp,12(sp)
   83f1c:	003c4a06 	br	83048 <___vfiprintf_internal_r+0x108>
   83f20:	002d883a 	mov	r22,zero
   83f24:	9839883a 	mov	fp,r19
   83f28:	003cbe06 	br	83224 <___vfiprintf_internal_r+0x2e4>
   83f2c:	42000204 	addi	r8,r8,8
   83f30:	31400044 	addi	r5,r6,1
   83f34:	3009883a 	mov	r4,r6
   83f38:	003ced06 	br	832f0 <___vfiprintf_internal_r+0x3b0>
   83f3c:	8080040c 	andi	r2,r16,16
   83f40:	1000421e 	bne	r2,zero,8404c <___vfiprintf_internal_r+0x110c>
   83f44:	8400100c 	andi	r16,r16,64
   83f48:	80004026 	beq	r16,zero,8404c <___vfiprintf_internal_r+0x110c>
   83f4c:	d8800317 	ldw	r2,12(sp)
   83f50:	d8c00117 	ldw	r3,4(sp)
   83f54:	10800017 	ldw	r2,0(r2)
   83f58:	10c0000d 	sth	r3,0(r2)
   83f5c:	003e0206 	br	83768 <___vfiprintf_internal_r+0x828>
   83f60:	0009883a 	mov	r4,zero
   83f64:	01400044 	movi	r5,1
   83f68:	9811883a 	mov	r8,r19
   83f6c:	003cde06 	br	832e8 <___vfiprintf_internal_r+0x3a8>
   83f70:	a82d883a 	mov	r22,r21
   83f74:	2839883a 	mov	fp,r5
   83f78:	003caa06 	br	83224 <___vfiprintf_internal_r+0x2e4>
   83f7c:	e009883a 	mov	r4,fp
   83f80:	d8c00315 	stw	r3,12(sp)
   83f84:	da000215 	stw	r8,8(sp)
   83f88:	00809380 	call	80938 <strlen>
   83f8c:	db000943 	ldbu	r12,37(sp)
   83f90:	da000217 	ldw	r8,8(sp)
   83f94:	d8c00317 	ldw	r3,12(sp)
   83f98:	102b883a 	mov	r21,r2
   83f9c:	102d883a 	mov	r22,r2
   83fa0:	103e620e 	bge	r2,zero,8392c <___vfiprintf_internal_r+0x9ec>
   83fa4:	002d883a 	mov	r22,zero
   83fa8:	003e6006 	br	8392c <___vfiprintf_internal_r+0x9ec>
   83fac:	8005883a 	mov	r2,r16
   83fb0:	003e0406 	br	837c4 <___vfiprintf_internal_r+0x884>
   83fb4:	00c002b4 	movhi	r3,10
   83fb8:	18e63204 	addi	r3,r3,-26424
   83fbc:	d8c00515 	stw	r3,20(sp)
   83fc0:	80c0080c 	andi	r3,r16,32
   83fc4:	18002826 	beq	r3,zero,84068 <___vfiprintf_internal_r+0x1128>
   83fc8:	d8c00317 	ldw	r3,12(sp)
   83fcc:	1d800017 	ldw	r22,0(r3)
   83fd0:	1d400117 	ldw	r21,4(r3)
   83fd4:	18c00204 	addi	r3,r3,8
   83fd8:	d8c00315 	stw	r3,12(sp)
   83fdc:	80c0004c 	andi	r3,r16,1
   83fe0:	18001f26 	beq	r3,zero,84060 <___vfiprintf_internal_r+0x1120>
   83fe4:	b546b03a 	or	r3,r22,r21
   83fe8:	183fc026 	beq	r3,zero,83eec <___vfiprintf_internal_r+0xfac>
   83fec:	00c00c04 	movi	r3,48
   83ff0:	d8c00985 	stb	r3,38(sp)
   83ff4:	d88009c5 	stb	r2,39(sp)
   83ff8:	d8000945 	stb	zero,37(sp)
   83ffc:	48bfffd8 	cmpnei	r2,r9,-1
   84000:	80c00094 	ori	r3,r16,2
   84004:	10006f1e 	bne	r2,zero,841c4 <___vfiprintf_internal_r+0x1284>
   84008:	1821883a 	mov	r16,r3
   8400c:	003f6406 	br	83da0 <___vfiprintf_internal_r+0xe60>
   84010:	8005883a 	mov	r2,r16
   84014:	003e0406 	br	83828 <___vfiprintf_internal_r+0x8e8>
   84018:	00c002b4 	movhi	r3,10
   8401c:	18e63704 	addi	r3,r3,-26404
   84020:	d8c00515 	stw	r3,20(sp)
   84024:	003fe606 	br	83fc0 <___vfiprintf_internal_r+0x1080>
   84028:	d8c00947 	ldb	r3,37(sp)
   8402c:	18003926 	beq	r3,zero,84114 <___vfiprintf_internal_r+0x11d4>
   84030:	d8800944 	addi	r2,sp,37
   84034:	d8801715 	stw	r2,92(sp)
   84038:	00800044 	movi	r2,1
   8403c:	d8801815 	stw	r2,96(sp)
   84040:	01400044 	movi	r5,1
   84044:	9811883a 	mov	r8,r19
   84048:	003c8c06 	br	8327c <___vfiprintf_internal_r+0x33c>
   8404c:	d8800317 	ldw	r2,12(sp)
   84050:	d8c00117 	ldw	r3,4(sp)
   84054:	10800017 	ldw	r2,0(r2)
   84058:	10c00015 	stw	r3,0(r2)
   8405c:	003dc206 	br	83768 <___vfiprintf_internal_r+0x828>
   84060:	8005883a 	mov	r2,r16
   84064:	003e4206 	br	83970 <___vfiprintf_internal_r+0xa30>
   84068:	d9000317 	ldw	r4,12(sp)
   8406c:	80c0040c 	andi	r3,r16,16
   84070:	25800017 	ldw	r22,0(r4)
   84074:	21000104 	addi	r4,r4,4
   84078:	d9000315 	stw	r4,12(sp)
   8407c:	1800051e 	bne	r3,zero,84094 <___vfiprintf_internal_r+0x1154>
   84080:	80c0100c 	andi	r3,r16,64
   84084:	18000326 	beq	r3,zero,84094 <___vfiprintf_internal_r+0x1154>
   84088:	b5bfffcc 	andi	r22,r22,65535
   8408c:	002b883a 	mov	r21,zero
   84090:	003fd206 	br	83fdc <___vfiprintf_internal_r+0x109c>
   84094:	002b883a 	mov	r21,zero
   84098:	003fd006 	br	83fdc <___vfiprintf_internal_r+0x109c>
   8409c:	002d883a 	mov	r22,zero
   840a0:	002b883a 	mov	r21,zero
   840a4:	003f3e06 	br	83da0 <___vfiprintf_internal_r+0xe60>
   840a8:	18800060 	cmpeqi	r2,r3,1
   840ac:	1000361e 	bne	r2,zero,84188 <___vfiprintf_internal_r+0x1248>
   840b0:	18c000a0 	cmpeqi	r3,r3,2
   840b4:	183ff91e 	bne	r3,zero,8409c <___vfiprintf_internal_r+0x115c>
   840b8:	002d883a 	mov	r22,zero
   840bc:	002b883a 	mov	r21,zero
   840c0:	003dec06 	br	83874 <___vfiprintf_internal_r+0x934>
   840c4:	00864140 	call	86414 <__sinit>
   840c8:	003baf06 	br	82f88 <___vfiprintf_internal_r+0x48>
   840cc:	488001f0 	cmpltui	r2,r9,7
   840d0:	482b883a 	mov	r21,r9
   840d4:	10000d26 	beq	r2,zero,8410c <___vfiprintf_internal_r+0x11cc>
   840d8:	070002b4 	movhi	fp,10
   840dc:	a82d883a 	mov	r22,r21
   840e0:	d8c00315 	stw	r3,12(sp)
   840e4:	e7263c04 	addi	fp,fp,-26384
   840e8:	003c4d06 	br	83220 <___vfiprintf_internal_r+0x2e0>
   840ec:	00c002b4 	movhi	r3,10
   840f0:	18e64704 	addi	r3,r3,-26340
   840f4:	d8c00415 	stw	r3,16(sp)
   840f8:	003eb206 	br	83bc4 <___vfiprintf_internal_r+0xc84>
   840fc:	01400044 	movi	r5,1
   84100:	0009883a 	mov	r4,zero
   84104:	9811883a 	mov	r8,r19
   84108:	003c7906 	br	832f0 <___vfiprintf_internal_r+0x3b0>
   8410c:	05400184 	movi	r21,6
   84110:	003ff106 	br	840d8 <___vfiprintf_internal_r+0x1198>
   84114:	0009883a 	mov	r4,zero
   84118:	01400044 	movi	r5,1
   8411c:	9811883a 	mov	r8,r19
   84120:	003c5906 	br	83288 <___vfiprintf_internal_r+0x348>
   84124:	d9000017 	ldw	r4,0(sp)
   84128:	d9800a04 	addi	r6,sp,40
   8412c:	900b883a 	mov	r5,r18
   84130:	0082e340 	call	82e34 <__sprint_r.part.0>
   84134:	003c8f06 	br	83374 <___vfiprintf_internal_r+0x434>
   84138:	db000943 	ldbu	r12,37(sp)
   8413c:	482d883a 	mov	r22,r9
   84140:	482b883a 	mov	r21,r9
   84144:	003df906 	br	8392c <___vfiprintf_internal_r+0x9ec>
   84148:	301f883a 	mov	r15,r6
   8414c:	39e64b04 	addi	r7,r7,-26324
   84150:	003efd06 	br	83d48 <___vfiprintf_internal_r+0xe08>
   84154:	21400044 	addi	r5,r4,1
   84158:	39e64b04 	addi	r7,r7,-26324
   8415c:	003d0906 	br	83584 <___vfiprintf_internal_r+0x644>
   84160:	010002b4 	movhi	r4,10
   84164:	21264704 	addi	r4,r4,-26340
   84168:	280d883a 	mov	r6,r5
   8416c:	d9000415 	stw	r4,16(sp)
   84170:	003e5b06 	br	83ae0 <___vfiprintf_internal_r+0xba0>
   84174:	00bfffc4 	movi	r2,-1
   84178:	d8800115 	stw	r2,4(sp)
   8417c:	003c8006 	br	83380 <___vfiprintf_internal_r+0x440>
   84180:	05800c04 	movi	r22,48
   84184:	003d2b06 	br	83634 <___vfiprintf_internal_r+0x6f4>
   84188:	0019883a 	mov	r12,zero
   8418c:	05800c04 	movi	r22,48
   84190:	003d2806 	br	83634 <___vfiprintf_internal_r+0x6f4>
   84194:	d8800317 	ldw	r2,12(sp)
   84198:	12400017 	ldw	r9,0(r2)
   8419c:	17000104 	addi	fp,r2,4
   841a0:	4800010e 	bge	r9,zero,841a8 <___vfiprintf_internal_r+0x1268>
   841a4:	027fffc4 	movi	r9,-1
   841a8:	a0800043 	ldbu	r2,1(r20)
   841ac:	df000315 	stw	fp,12(sp)
   841b0:	1829883a 	mov	r20,r3
   841b4:	10803fcc 	andi	r2,r2,255
   841b8:	1080201c 	xori	r2,r2,128
   841bc:	10bfe004 	addi	r2,r2,-128
   841c0:	003ba106 	br	83048 <___vfiprintf_internal_r+0x108>
   841c4:	00bfdfc4 	movi	r2,-129
   841c8:	8084703a 	and	r2,r16,r2
   841cc:	14000094 	ori	r16,r2,2
   841d0:	003ef306 	br	83da0 <___vfiprintf_internal_r+0xe60>
   841d4:	0019883a 	mov	r12,zero
   841d8:	003d1206 	br	83624 <___vfiprintf_internal_r+0x6e4>

000841dc <__vfiprintf_internal>:
   841dc:	00c002b4 	movhi	r3,10
   841e0:	2005883a 	mov	r2,r4
   841e4:	192e6a17 	ldw	r4,-18008(r3)
   841e8:	300f883a 	mov	r7,r6
   841ec:	280d883a 	mov	r6,r5
   841f0:	100b883a 	mov	r5,r2
   841f4:	0082f401 	jmpi	82f40 <___vfiprintf_internal_r>

000841f8 <__sbprintf>:
   841f8:	28c0038b 	ldhu	r3,14(r5)
   841fc:	2880030b 	ldhu	r2,12(r5)
   84200:	2ac01917 	ldw	r11,100(r5)
   84204:	1806943a 	slli	r3,r3,16
   84208:	2a800717 	ldw	r10,28(r5)
   8420c:	2a400917 	ldw	r9,36(r5)
   84210:	defee204 	addi	sp,sp,-1144
   84214:	10bfff4c 	andi	r2,r2,65533
   84218:	10c4b03a 	or	r2,r2,r3
   8421c:	da001a04 	addi	r8,sp,104
   84220:	00c10004 	movi	r3,1024
   84224:	dc011a15 	stw	r16,1128(sp)
   84228:	2821883a 	mov	r16,r5
   8422c:	d80b883a 	mov	r5,sp
   84230:	dc811c15 	stw	r18,1136(sp)
   84234:	dc411b15 	stw	r17,1132(sp)
   84238:	dfc11d15 	stw	ra,1140(sp)
   8423c:	2025883a 	mov	r18,r4
   84240:	dac01915 	stw	r11,100(sp)
   84244:	d8800315 	stw	r2,12(sp)
   84248:	da800715 	stw	r10,28(sp)
   8424c:	da400915 	stw	r9,36(sp)
   84250:	da000015 	stw	r8,0(sp)
   84254:	da000415 	stw	r8,16(sp)
   84258:	d8c00215 	stw	r3,8(sp)
   8425c:	d8c00515 	stw	r3,20(sp)
   84260:	d8000615 	stw	zero,24(sp)
   84264:	0082f400 	call	82f40 <___vfiprintf_internal_r>
   84268:	1023883a 	mov	r17,r2
   8426c:	10000d0e 	bge	r2,zero,842a4 <__sbprintf+0xac>
   84270:	d880030b 	ldhu	r2,12(sp)
   84274:	1080100c 	andi	r2,r2,64
   84278:	10000326 	beq	r2,zero,84288 <__sbprintf+0x90>
   8427c:	8080030b 	ldhu	r2,12(r16)
   84280:	10801014 	ori	r2,r2,64
   84284:	8080030d 	sth	r2,12(r16)
   84288:	8805883a 	mov	r2,r17
   8428c:	dfc11d17 	ldw	ra,1140(sp)
   84290:	dc811c17 	ldw	r18,1136(sp)
   84294:	dc411b17 	ldw	r17,1132(sp)
   84298:	dc011a17 	ldw	r16,1128(sp)
   8429c:	dec11e04 	addi	sp,sp,1144
   842a0:	f800283a 	ret
   842a4:	d80b883a 	mov	r5,sp
   842a8:	9009883a 	mov	r4,r18
   842ac:	0085ffc0 	call	85ffc <_fflush_r>
   842b0:	103fef26 	beq	r2,zero,84270 <__sbprintf+0x78>
   842b4:	047fffc4 	movi	r17,-1
   842b8:	003fed06 	br	84270 <__sbprintf+0x78>

000842bc <__svfscanf_r>:
   842bc:	2880030b 	ldhu	r2,12(r5)
   842c0:	deff4904 	addi	sp,sp,-732
   842c4:	ddc0b415 	stw	r23,720(sp)
   842c8:	dfc0b615 	stw	ra,728(sp)
   842cc:	df00b515 	stw	fp,724(sp)
   842d0:	dd80b315 	stw	r22,716(sp)
   842d4:	dd40b215 	stw	r21,712(sp)
   842d8:	dd00b115 	stw	r20,708(sp)
   842dc:	dcc0b015 	stw	r19,704(sp)
   842e0:	dc80af15 	stw	r18,700(sp)
   842e4:	dc40ae15 	stw	r17,696(sp)
   842e8:	dc00ad15 	stw	r16,692(sp)
   842ec:	10c8000c 	andi	r3,r2,8192
   842f0:	d9000115 	stw	r4,4(sp)
   842f4:	282f883a 	mov	r23,r5
   842f8:	1800061e 	bne	r3,zero,84314 <__svfscanf_r+0x58>
   842fc:	28c01917 	ldw	r3,100(r5)
   84300:	0137ffc4 	movi	r4,-8193
   84304:	10880014 	ori	r2,r2,8192
   84308:	1906703a 	and	r3,r3,r4
   8430c:	2880030d 	sth	r2,12(r5)
   84310:	28c01915 	stw	r3,100(r5)
   84314:	30800003 	ldbu	r2,0(r6)
   84318:	34c00044 	addi	r19,r6,1
   8431c:	d8801015 	stw	r2,64(sp)
   84320:	10061226 	beq	r2,zero,85b6c <__svfscanf_r+0x18b0>
   84324:	0039883a 	mov	fp,zero
   84328:	b825883a 	mov	r18,r23
   8432c:	d8000515 	stw	zero,20(sp)
   84330:	0021883a 	mov	r16,zero
   84334:	d8000415 	stw	zero,16(sp)
   84338:	d8000215 	stw	zero,8(sp)
   8433c:	e02f883a 	mov	r23,fp
   84340:	d9c00315 	stw	r7,12(sp)
   84344:	00c002b4 	movhi	r3,10
   84348:	10c7883a 	add	r3,r2,r3
   8434c:	19a6e343 	ldbu	r6,-25715(r3)
   84350:	3500020c 	andi	r20,r6,8
   84354:	a019883a 	mov	r12,r20
   84358:	a000771e 	bne	r20,zero,84538 <__svfscanf_r+0x27c>
   8435c:	10800958 	cmpnei	r2,r2,37
   84360:	1000621e 	bne	r2,zero,844ec <__svfscanf_r+0x230>
   84364:	99400003 	ldbu	r5,0(r19)
   84368:	002b883a 	mov	r21,zero
   8436c:	0007883a 	mov	r3,zero
   84370:	28bff6c4 	addi	r2,r5,-37
   84374:	10803fcc 	andi	r2,r2,255
   84378:	11001528 	cmpgeui	r4,r2,84
   8437c:	9c400044 	addi	r17,r19,1
   84380:	2000601e 	bne	r4,zero,84504 <__svfscanf_r+0x248>
   84384:	100490ba 	slli	r2,r2,2
   84388:	01000234 	movhi	r4,8
   8438c:	1109883a 	add	r4,r2,r4
   84390:	2090e617 	ldw	r2,17304(r4)
   84394:	1000683a 	jmp	r2
   84398:	000844e8 	cmpgeui	zero,zero,8467
   8439c:	00084504 	movi	zero,8468
   843a0:	00084504 	movi	zero,8468
   843a4:	00084504 	movi	zero,8468
   843a8:	00084504 	movi	zero,8468
   843ac:	0008490c 	andi	zero,zero,8484
   843b0:	00084504 	movi	zero,8468
   843b4:	00084504 	movi	zero,8468
   843b8:	00084504 	movi	zero,8468
   843bc:	00084504 	movi	zero,8468
   843c0:	00084504 	movi	zero,8468
   843c4:	000845f4 	movhi	zero,8471
   843c8:	000845f4 	movhi	zero,8471
   843cc:	000845f4 	movhi	zero,8471
   843d0:	000845f4 	movhi	zero,8471
   843d4:	000845f4 	movhi	zero,8471
   843d8:	000845f4 	movhi	zero,8471
   843dc:	000845f4 	movhi	zero,8471
   843e0:	000845f4 	movhi	zero,8471
   843e4:	000845f4 	movhi	zero,8471
   843e8:	000845f4 	movhi	zero,8471
   843ec:	00084504 	movi	zero,8468
   843f0:	00084504 	movi	zero,8468
   843f4:	00084504 	movi	zero,8468
   843f8:	00084504 	movi	zero,8468
   843fc:	00084504 	movi	zero,8468
   84400:	00084504 	movi	zero,8468
   84404:	00084504 	movi	zero,8468
   84408:	00084504 	movi	zero,8468
   8440c:	00084504 	movi	zero,8468
   84410:	00084504 	movi	zero,8468
   84414:	00084898 	cmpnei	zero,zero,8482
   84418:	00084620 	cmpeqi	zero,zero,8472
   8441c:	00084504 	movi	zero,8468
   84420:	00084620 	cmpeqi	zero,zero,8472
   84424:	00084504 	movi	zero,8468
   84428:	00084504 	movi	zero,8468
   8442c:	00084504 	movi	zero,8468
   84430:	00084504 	movi	zero,8468
   84434:	00084880 	call	8488 <__reset-0x77b78>
   84438:	00084504 	movi	zero,8468
   8443c:	00084504 	movi	zero,8468
   84440:	000847c4 	movi	zero,8479
   84444:	00084504 	movi	zero,8468
   84448:	00084504 	movi	zero,8468
   8444c:	00084504 	movi	zero,8468
   84450:	00084504 	movi	zero,8468
   84454:	00084504 	movi	zero,8468
   84458:	00084504 	movi	zero,8468
   8445c:	00084504 	movi	zero,8468
   84460:	00084504 	movi	zero,8468
   84464:	000846f0 	cmpltui	zero,zero,8475
   84468:	00084504 	movi	zero,8468
   8446c:	00084504 	movi	zero,8468
   84470:	00084838 	rdprs	zero,zero,8480
   84474:	00084504 	movi	zero,8468
   84478:	00084504 	movi	zero,8468
   8447c:	00084504 	movi	zero,8468
   84480:	00084504 	movi	zero,8468
   84484:	00084504 	movi	zero,8468
   84488:	00084504 	movi	zero,8468
   8448c:	00084504 	movi	zero,8468
   84490:	000847b8 	rdprs	zero,zero,8478
   84494:	00085a2c 	andhi	zero,zero,8552
   84498:	00084620 	cmpeqi	zero,zero,8472
   8449c:	00084620 	cmpeqi	zero,zero,8472
   844a0:	00084620 	cmpeqi	zero,zero,8472
   844a4:	000847e4 	muli	zero,zero,8479
   844a8:	000847fc 	xorhi	zero,zero,8479
   844ac:	00084504 	movi	zero,8468
   844b0:	00084504 	movi	zero,8468
   844b4:	00084814 	movui	zero,8480
   844b8:	00084504 	movi	zero,8468
   844bc:	000848b8 	rdprs	zero,zero,8482
   844c0:	00085a34 	movhi	zero,8552
   844c4:	000848f8 	rdprs	zero,zero,8483
   844c8:	00084504 	movi	zero,8468
   844cc:	00084504 	movi	zero,8468
   844d0:	00084904 	movi	zero,8484
   844d4:	00084504 	movi	zero,8468
   844d8:	00084864 	muli	zero,zero,8481
   844dc:	00084504 	movi	zero,8468
   844e0:	00084504 	movi	zero,8468
   844e4:	000846f0 	cmpltui	zero,zero,8475
   844e8:	8827883a 	mov	r19,r17
   844ec:	90800117 	ldw	r2,4(r18)
   844f0:	0080330e 	bge	zero,r2,845c0 <__svfscanf_r+0x304>
   844f4:	90800017 	ldw	r2,0(r18)
   844f8:	98ffffc3 	ldbu	r3,-1(r19)
   844fc:	11000003 	ldbu	r4,0(r2)
   84500:	20c02326 	beq	r4,r3,84590 <__svfscanf_r+0x2d4>
   84504:	d8800217 	ldw	r2,8(sp)
   84508:	dfc0b617 	ldw	ra,728(sp)
   8450c:	df00b517 	ldw	fp,724(sp)
   84510:	ddc0b417 	ldw	r23,720(sp)
   84514:	dd80b317 	ldw	r22,716(sp)
   84518:	dd40b217 	ldw	r21,712(sp)
   8451c:	dd00b117 	ldw	r20,708(sp)
   84520:	dcc0b017 	ldw	r19,704(sp)
   84524:	dc80af17 	ldw	r18,700(sp)
   84528:	dc40ae17 	ldw	r17,696(sp)
   8452c:	dc00ad17 	ldw	r16,692(sp)
   84530:	dec0b704 	addi	sp,sp,732
   84534:	f800283a 	ret
   84538:	90800117 	ldw	r2,4(r18)
   8453c:	00800e0e 	bge	zero,r2,84578 <__svfscanf_r+0x2bc>
   84540:	90800017 	ldw	r2,0(r18)
   84544:	00c002b4 	movhi	r3,10
   84548:	11000003 	ldbu	r4,0(r2)
   8454c:	10800044 	addi	r2,r2,1
   84550:	20c7883a 	add	r3,r4,r3
   84554:	18e6e343 	ldbu	r3,-25715(r3)
   84558:	18c0020c 	andi	r3,r3,8
   8455c:	18000a26 	beq	r3,zero,84588 <__svfscanf_r+0x2cc>
   84560:	90c00117 	ldw	r3,4(r18)
   84564:	90800015 	stw	r2,0(r18)
   84568:	bdc00044 	addi	r23,r23,1
   8456c:	18bfffc4 	addi	r2,r3,-1
   84570:	90800115 	stw	r2,4(r18)
   84574:	00bff216 	blt	zero,r2,84540 <__svfscanf_r+0x284>
   84578:	d9000117 	ldw	r4,4(sp)
   8457c:	900b883a 	mov	r5,r18
   84580:	0086c540 	call	86c54 <__srefill_r>
   84584:	103fee26 	beq	r2,zero,84540 <__svfscanf_r+0x284>
   84588:	9823883a 	mov	r17,r19
   8458c:	00000706 	br	845ac <__svfscanf_r+0x2f0>
   84590:	90c00117 	ldw	r3,4(r18)
   84594:	10800044 	addi	r2,r2,1
   84598:	90800015 	stw	r2,0(r18)
   8459c:	18bfffc4 	addi	r2,r3,-1
   845a0:	90800115 	stw	r2,4(r18)
   845a4:	bdc00044 	addi	r23,r23,1
   845a8:	9823883a 	mov	r17,r19
   845ac:	88800003 	ldbu	r2,0(r17)
   845b0:	8cc00044 	addi	r19,r17,1
   845b4:	d8801015 	stw	r2,64(sp)
   845b8:	103f621e 	bne	r2,zero,84344 <__svfscanf_r+0x88>
   845bc:	003fd106 	br	84504 <__svfscanf_r+0x248>
   845c0:	d9000117 	ldw	r4,4(sp)
   845c4:	900b883a 	mov	r5,r18
   845c8:	0086c540 	call	86c54 <__srefill_r>
   845cc:	103fc926 	beq	r2,zero,844f4 <__svfscanf_r+0x238>
   845d0:	902f883a 	mov	r23,r18
   845d4:	d8800217 	ldw	r2,8(sp)
   845d8:	10000326 	beq	r2,zero,845e8 <__svfscanf_r+0x32c>
   845dc:	b880030b 	ldhu	r2,12(r23)
   845e0:	1080100c 	andi	r2,r2,64
   845e4:	103fc726 	beq	r2,zero,84504 <__svfscanf_r+0x248>
   845e8:	00bfffc4 	movi	r2,-1
   845ec:	d8800215 	stw	r2,8(sp)
   845f0:	003fc406 	br	84504 <__svfscanf_r+0x248>
   845f4:	a88023cc 	andi	r2,r21,143
   845f8:	103fc21e 	bne	r2,zero,84504 <__svfscanf_r+0x248>
   845fc:	180490ba 	slli	r2,r3,2
   84600:	29003fcc 	andi	r4,r5,255
   84604:	99400043 	ldbu	r5,1(r19)
   84608:	10c7883a 	add	r3,r2,r3
   8460c:	18c7883a 	add	r3,r3,r3
   84610:	1907883a 	add	r3,r3,r4
   84614:	18fff404 	addi	r3,r3,-48
   84618:	8827883a 	mov	r19,r17
   8461c:	003f5406 	br	84370 <__svfscanf_r+0xb4>
   84620:	05800104 	movi	r22,4
   84624:	90800117 	ldw	r2,4(r18)
   84628:	00803a0e 	bge	zero,r2,84714 <__svfscanf_r+0x458>
   8462c:	a880100c 	andi	r2,r21,64
   84630:	10004226 	beq	r2,zero,8473c <__svfscanf_r+0x480>
   84634:	b08000e0 	cmpeqi	r2,r22,3
   84638:	1000c01e 	bne	r2,zero,8493c <__svfscanf_r+0x680>
   8463c:	b0800120 	cmpeqi	r2,r22,4
   84640:	1001be1e 	bne	r2,zero,84d3c <__svfscanf_r+0xa80>
   84644:	b0800060 	cmpeqi	r2,r22,1
   84648:	10018f1e 	bne	r2,zero,84c88 <__svfscanf_r+0x9cc>
   8464c:	b58000a0 	cmpeqi	r22,r22,2
   84650:	b0012026 	beq	r22,zero,84ad4 <__svfscanf_r+0x818>
   84654:	1800011e 	bne	r3,zero,8465c <__svfscanf_r+0x3a0>
   84658:	00ffffc4 	movi	r3,-1
   8465c:	91000017 	ldw	r4,0(r18)
   84660:	008002b4 	movhi	r2,10
   84664:	a940004c 	andi	r5,r21,1
   84668:	21800003 	ldbu	r6,0(r4)
   8466c:	ad40040c 	andi	r21,r21,16
   84670:	3085883a 	add	r2,r6,r2
   84674:	10a6e343 	ldbu	r2,-25715(r2)
   84678:	1080020c 	andi	r2,r2,8
   8467c:	2803291e 	bne	r5,zero,85324 <__svfscanf_r+0x1068>
   84680:	a803c626 	beq	r21,zero,8559c <__svfscanf_r+0x12e0>
   84684:	103fc91e 	bne	r2,zero,845ac <__svfscanf_r+0x2f0>
   84688:	90800117 	ldw	r2,4(r18)
   8468c:	21000044 	addi	r4,r4,1
   84690:	91000015 	stw	r4,0(r18)
   84694:	10bfffc4 	addi	r2,r2,-1
   84698:	90800115 	stw	r2,4(r18)
   8469c:	19000058 	cmpnei	r4,r3,1
   846a0:	04c00044 	movi	r19,1
   846a4:	1829883a 	mov	r20,r3
   846a8:	2004f426 	beq	r4,zero,85a7c <__svfscanf_r+0x17c0>
   846ac:	0083060e 	bge	zero,r2,852c8 <__svfscanf_r+0x100c>
   846b0:	90800017 	ldw	r2,0(r18)
   846b4:	010002b4 	movhi	r4,10
   846b8:	11400003 	ldbu	r5,0(r2)
   846bc:	10800044 	addi	r2,r2,1
   846c0:	2909883a 	add	r4,r5,r4
   846c4:	2126e343 	ldbu	r4,-25715(r4)
   846c8:	2100020c 	andi	r4,r4,8
   846cc:	2003021e 	bne	r4,zero,852d8 <__svfscanf_r+0x101c>
   846d0:	91000117 	ldw	r4,4(r18)
   846d4:	90800015 	stw	r2,0(r18)
   846d8:	9cc00044 	addi	r19,r19,1
   846dc:	20bfffc4 	addi	r2,r4,-1
   846e0:	90800115 	stw	r2,4(r18)
   846e4:	a4fff11e 	bne	r20,r19,846ac <__svfscanf_r+0x3f0>
   846e8:	bd2f883a 	add	r23,r23,r20
   846ec:	003faf06 	br	845ac <__svfscanf_r+0x2f0>
   846f0:	00800274 	movhi	r2,9
   846f4:	ad408014 	ori	r21,r21,512
   846f8:	10b74704 	addi	r2,r2,-8932
   846fc:	d8800515 	stw	r2,20(sp)
   84700:	00800404 	movi	r2,16
   84704:	d8800415 	stw	r2,16(sp)
   84708:	90800117 	ldw	r2,4(r18)
   8470c:	058000c4 	movi	r22,3
   84710:	00bfc616 	blt	zero,r2,8462c <__svfscanf_r+0x370>
   84714:	d9000117 	ldw	r4,4(sp)
   84718:	900b883a 	mov	r5,r18
   8471c:	db000715 	stw	r12,28(sp)
   84720:	d8c00615 	stw	r3,24(sp)
   84724:	0086c540 	call	86c54 <__srefill_r>
   84728:	d8c00617 	ldw	r3,24(sp)
   8472c:	db000717 	ldw	r12,28(sp)
   84730:	103fa71e 	bne	r2,zero,845d0 <__svfscanf_r+0x314>
   84734:	a880100c 	andi	r2,r21,64
   84738:	103fbe1e 	bne	r2,zero,84634 <__svfscanf_r+0x378>
   8473c:	91000017 	ldw	r4,0(r18)
   84740:	008002b4 	movhi	r2,10
   84744:	21400003 	ldbu	r5,0(r4)
   84748:	2885883a 	add	r2,r5,r2
   8474c:	10a6e343 	ldbu	r2,-25715(r2)
   84750:	1080020c 	andi	r2,r2,8
   84754:	103fb726 	beq	r2,zero,84634 <__svfscanf_r+0x378>
   84758:	b827883a 	mov	r19,r23
   8475c:	1839883a 	mov	fp,r3
   84760:	a02f883a 	mov	r23,r20
   84764:	6029883a 	mov	r20,r12
   84768:	00000706 	br	84788 <__svfscanf_r+0x4cc>
   8476c:	91000015 	stw	r4,0(r18)
   84770:	21400003 	ldbu	r5,0(r4)
   84774:	008002b4 	movhi	r2,10
   84778:	2885883a 	add	r2,r5,r2
   8477c:	10a6e343 	ldbu	r2,-25715(r2)
   84780:	1080020c 	andi	r2,r2,8
   84784:	10006726 	beq	r2,zero,84924 <__svfscanf_r+0x668>
   84788:	90800117 	ldw	r2,4(r18)
   8478c:	21000044 	addi	r4,r4,1
   84790:	9cc00044 	addi	r19,r19,1
   84794:	10bfffc4 	addi	r2,r2,-1
   84798:	90800115 	stw	r2,4(r18)
   8479c:	00bff316 	blt	zero,r2,8476c <__svfscanf_r+0x4b0>
   847a0:	d9000117 	ldw	r4,4(sp)
   847a4:	900b883a 	mov	r5,r18
   847a8:	0086c540 	call	86c54 <__srefill_r>
   847ac:	103f881e 	bne	r2,zero,845d0 <__svfscanf_r+0x314>
   847b0:	91000017 	ldw	r4,0(r18)
   847b4:	003fee06 	br	84770 <__svfscanf_r+0x4b4>
   847b8:	ad401014 	ori	r21,r21,64
   847bc:	002d883a 	mov	r22,zero
   847c0:	003f9806 	br	84624 <__svfscanf_r+0x368>
   847c4:	00800274 	movhi	r2,9
   847c8:	ad400054 	ori	r21,r21,1
   847cc:	10b74704 	addi	r2,r2,-8932
   847d0:	d8800515 	stw	r2,20(sp)
   847d4:	00800204 	movi	r2,8
   847d8:	d8800415 	stw	r2,16(sp)
   847dc:	058000c4 	movi	r22,3
   847e0:	003f9006 	br	84624 <__svfscanf_r+0x368>
   847e4:	a88003cc 	andi	r2,r21,15
   847e8:	103f461e 	bne	r2,zero,84504 <__svfscanf_r+0x248>
   847ec:	99400043 	ldbu	r5,1(r19)
   847f0:	ad400114 	ori	r21,r21,4
   847f4:	8827883a 	mov	r19,r17
   847f8:	003edd06 	br	84370 <__svfscanf_r+0xb4>
   847fc:	00800274 	movhi	r2,9
   84800:	10b6a604 	addi	r2,r2,-9576
   84804:	d8800515 	stw	r2,20(sp)
   84808:	d8000415 	stw	zero,16(sp)
   8480c:	058000c4 	movi	r22,3
   84810:	003f8406 	br	84624 <__svfscanf_r+0x368>
   84814:	a88003cc 	andi	r2,r21,15
   84818:	103f3a1e 	bne	r2,zero,84504 <__svfscanf_r+0x248>
   8481c:	99400043 	ldbu	r5,1(r19)
   84820:	28803fcc 	andi	r2,r5,255
   84824:	10801b18 	cmpnei	r2,r2,108
   84828:	1004b926 	beq	r2,zero,85b10 <__svfscanf_r+0x1854>
   8482c:	ad400054 	ori	r21,r21,1
   84830:	8827883a 	mov	r19,r17
   84834:	003ece06 	br	84370 <__svfscanf_r+0xb4>
   84838:	880b883a 	mov	r5,r17
   8483c:	d9001584 	addi	r4,sp,86
   84840:	d8c00715 	stw	r3,28(sp)
   84844:	db000615 	stw	r12,24(sp)
   84848:	0086e140 	call	86e14 <__sccl>
   8484c:	db000617 	ldw	r12,24(sp)
   84850:	d8c00717 	ldw	r3,28(sp)
   84854:	1023883a 	mov	r17,r2
   84858:	ad401014 	ori	r21,r21,64
   8485c:	05800044 	movi	r22,1
   84860:	003f7006 	br	84624 <__svfscanf_r+0x368>
   84864:	00800274 	movhi	r2,9
   84868:	10b74704 	addi	r2,r2,-8932
   8486c:	d8800515 	stw	r2,20(sp)
   84870:	00800284 	movi	r2,10
   84874:	d8800415 	stw	r2,16(sp)
   84878:	058000c4 	movi	r22,3
   8487c:	003f6906 	br	84624 <__svfscanf_r+0x368>
   84880:	a88003cc 	andi	r2,r21,15
   84884:	103f1f1e 	bne	r2,zero,84504 <__svfscanf_r+0x248>
   84888:	99400043 	ldbu	r5,1(r19)
   8488c:	ad400094 	ori	r21,r21,2
   84890:	8827883a 	mov	r19,r17
   84894:	003eb606 	br	84370 <__svfscanf_r+0xb4>
   84898:	00800274 	movhi	r2,9
   8489c:	ad400054 	ori	r21,r21,1
   848a0:	10b6a604 	addi	r2,r2,-9576
   848a4:	d8800515 	stw	r2,20(sp)
   848a8:	00800284 	movi	r2,10
   848ac:	d8800415 	stw	r2,16(sp)
   848b0:	058000c4 	movi	r22,3
   848b4:	003f5b06 	br	84624 <__svfscanf_r+0x368>
   848b8:	a880040c 	andi	r2,r21,16
   848bc:	103f3b1e 	bne	r2,zero,845ac <__svfscanf_r+0x2f0>
   848c0:	d9000317 	ldw	r4,12(sp)
   848c4:	a880010c 	andi	r2,r21,4
   848c8:	20c00017 	ldw	r3,0(r4)
   848cc:	21000104 	addi	r4,r4,4
   848d0:	d9000315 	stw	r4,12(sp)
   848d4:	1004531e 	bne	r2,zero,85a24 <__svfscanf_r+0x1768>
   848d8:	a880004c 	andi	r2,r21,1
   848dc:	1004a51e 	bne	r2,zero,85b74 <__svfscanf_r+0x18b8>
   848e0:	acc0008c 	andi	r19,r21,2
   848e4:	9804a326 	beq	r19,zero,85b74 <__svfscanf_r+0x18b8>
   848e8:	b805d7fa 	srai	r2,r23,31
   848ec:	1dc00015 	stw	r23,0(r3)
   848f0:	18800115 	stw	r2,4(r3)
   848f4:	003f2d06 	br	845ac <__svfscanf_r+0x2f0>
   848f8:	00800274 	movhi	r2,9
   848fc:	ad408814 	ori	r21,r21,544
   84900:	003f7d06 	br	846f8 <__svfscanf_r+0x43c>
   84904:	05800084 	movi	r22,2
   84908:	003f4606 	br	84624 <__svfscanf_r+0x368>
   8490c:	1d46b03a 	or	r3,r3,r21
   84910:	183efc1e 	bne	r3,zero,84504 <__svfscanf_r+0x248>
   84914:	99400043 	ldbu	r5,1(r19)
   84918:	05400404 	movi	r21,16
   8491c:	8827883a 	mov	r19,r17
   84920:	003e9306 	br	84370 <__svfscanf_r+0xb4>
   84924:	b08000e0 	cmpeqi	r2,r22,3
   84928:	a019883a 	mov	r12,r20
   8492c:	e007883a 	mov	r3,fp
   84930:	b829883a 	mov	r20,r23
   84934:	982f883a 	mov	r23,r19
   84938:	103f4026 	beq	r2,zero,8463c <__svfscanf_r+0x380>
   8493c:	18bfffc4 	addi	r2,r3,-1
   84940:	10805770 	cmpltui	r2,r2,349
   84944:	ad436014 	ori	r21,r21,3456
   84948:	1002741e 	bne	r2,zero,8531c <__svfscanf_r+0x1060>
   8494c:	1f3fa8c4 	addi	fp,r3,-349
   84950:	00c05744 	movi	r3,349
   84954:	df000715 	stw	fp,28(sp)
   84958:	df000417 	ldw	fp,16(sp)
   8495c:	d8805584 	addi	r2,sp,342
   84960:	d8800615 	stw	r2,24(sp)
   84964:	0029883a 	mov	r20,zero
   84968:	102d883a 	mov	r22,r2
   8496c:	1827883a 	mov	r19,r3
   84970:	91000017 	ldw	r4,0(r18)
   84974:	21400003 	ldbu	r5,0(r4)
   84978:	28bff544 	addi	r2,r5,-43
   8497c:	10803fcc 	andi	r2,r2,255
   84980:	10c013a8 	cmpgeui	r3,r2,78
   84984:	1800771e 	bne	r3,zero,84b64 <__svfscanf_r+0x8a8>
   84988:	100490ba 	slli	r2,r2,2
   8498c:	01800234 	movhi	r6,8
   84990:	118d883a 	add	r6,r2,r6
   84994:	30926717 	ldw	r2,18844(r6)
   84998:	1000683a 	jmp	r2
   8499c:	00084c1c 	xori	zero,zero,8496
   849a0:	00084b64 	muli	zero,zero,8493
   849a4:	00084c1c 	xori	zero,zero,8496
   849a8:	00084b64 	muli	zero,zero,8493
   849ac:	00084b64 	muli	zero,zero,8493
   849b0:	00084c4c 	andi	zero,zero,8497
   849b4:	00084be0 	cmpeqi	zero,zero,8495
   849b8:	00084be0 	cmpeqi	zero,zero,8495
   849bc:	00084be0 	cmpeqi	zero,zero,8495
   849c0:	00084be0 	cmpeqi	zero,zero,8495
   849c4:	00084be0 	cmpeqi	zero,zero,8495
   849c8:	00084be0 	cmpeqi	zero,zero,8495
   849cc:	00084be0 	cmpeqi	zero,zero,8495
   849d0:	00084c30 	cmpltui	zero,zero,8496
   849d4:	00084c30 	cmpltui	zero,zero,8496
   849d8:	00084b64 	muli	zero,zero,8493
   849dc:	00084b64 	muli	zero,zero,8493
   849e0:	00084b64 	muli	zero,zero,8493
   849e4:	00084b64 	muli	zero,zero,8493
   849e8:	00084b64 	muli	zero,zero,8493
   849ec:	00084b64 	muli	zero,zero,8493
   849f0:	00084b64 	muli	zero,zero,8493
   849f4:	00084b2c 	andhi	zero,zero,8492
   849f8:	00084b2c 	andhi	zero,zero,8492
   849fc:	00084b2c 	andhi	zero,zero,8492
   84a00:	00084b2c 	andhi	zero,zero,8492
   84a04:	00084b2c 	andhi	zero,zero,8492
   84a08:	00084b2c 	andhi	zero,zero,8492
   84a0c:	00084b64 	muli	zero,zero,8493
   84a10:	00084b64 	muli	zero,zero,8493
   84a14:	00084b64 	muli	zero,zero,8493
   84a18:	00084b64 	muli	zero,zero,8493
   84a1c:	00084b64 	muli	zero,zero,8493
   84a20:	00084b64 	muli	zero,zero,8493
   84a24:	00084b64 	muli	zero,zero,8493
   84a28:	00084b64 	muli	zero,zero,8493
   84a2c:	00084b64 	muli	zero,zero,8493
   84a30:	00084b64 	muli	zero,zero,8493
   84a34:	00084b64 	muli	zero,zero,8493
   84a38:	00084b64 	muli	zero,zero,8493
   84a3c:	00084b64 	muli	zero,zero,8493
   84a40:	00084b64 	muli	zero,zero,8493
   84a44:	00084b64 	muli	zero,zero,8493
   84a48:	00084b64 	muli	zero,zero,8493
   84a4c:	00084b64 	muli	zero,zero,8493
   84a50:	00084bfc 	xorhi	zero,zero,8495
   84a54:	00084b64 	muli	zero,zero,8493
   84a58:	00084b64 	muli	zero,zero,8493
   84a5c:	00084b64 	muli	zero,zero,8493
   84a60:	00084b64 	muli	zero,zero,8493
   84a64:	00084b64 	muli	zero,zero,8493
   84a68:	00084b64 	muli	zero,zero,8493
   84a6c:	00084b64 	muli	zero,zero,8493
   84a70:	00084b64 	muli	zero,zero,8493
   84a74:	00084b2c 	andhi	zero,zero,8492
   84a78:	00084b2c 	andhi	zero,zero,8492
   84a7c:	00084b2c 	andhi	zero,zero,8492
   84a80:	00084b2c 	andhi	zero,zero,8492
   84a84:	00084b2c 	andhi	zero,zero,8492
   84a88:	00084b2c 	andhi	zero,zero,8492
   84a8c:	00084b64 	muli	zero,zero,8493
   84a90:	00084b64 	muli	zero,zero,8493
   84a94:	00084b64 	muli	zero,zero,8493
   84a98:	00084b64 	muli	zero,zero,8493
   84a9c:	00084b64 	muli	zero,zero,8493
   84aa0:	00084b64 	muli	zero,zero,8493
   84aa4:	00084b64 	muli	zero,zero,8493
   84aa8:	00084b64 	muli	zero,zero,8493
   84aac:	00084b64 	muli	zero,zero,8493
   84ab0:	00084b64 	muli	zero,zero,8493
   84ab4:	00084b64 	muli	zero,zero,8493
   84ab8:	00084b64 	muli	zero,zero,8493
   84abc:	00084b64 	muli	zero,zero,8493
   84ac0:	00084b64 	muli	zero,zero,8493
   84ac4:	00084b64 	muli	zero,zero,8493
   84ac8:	00084b64 	muli	zero,zero,8493
   84acc:	00084b64 	muli	zero,zero,8493
   84ad0:	00084bfc 	xorhi	zero,zero,8495
   84ad4:	1839883a 	mov	fp,r3
   84ad8:	1800011e 	bne	r3,zero,84ae0 <__svfscanf_r+0x824>
   84adc:	07000044 	movi	fp,1
   84ae0:	a880004c 	andi	r2,r21,1
   84ae4:	acc0040c 	andi	r19,r21,16
   84ae8:	1003281e 	bne	r2,zero,8578c <__svfscanf_r+0x14d0>
   84aec:	9802941e 	bne	r19,zero,85540 <__svfscanf_r+0x1284>
   84af0:	dcc00317 	ldw	r19,12(sp)
   84af4:	dc800015 	stw	r18,0(sp)
   84af8:	d9000117 	ldw	r4,4(sp)
   84afc:	99400017 	ldw	r5,0(r19)
   84b00:	e00f883a 	mov	r7,fp
   84b04:	01800044 	movi	r6,1
   84b08:	00864740 	call	86474 <_fread_r>
   84b0c:	98c00104 	addi	r3,r19,4
   84b10:	103eaf26 	beq	r2,zero,845d0 <__svfscanf_r+0x314>
   84b14:	b8af883a 	add	r23,r23,r2
   84b18:	d8800217 	ldw	r2,8(sp)
   84b1c:	d8c00315 	stw	r3,12(sp)
   84b20:	10800044 	addi	r2,r2,1
   84b24:	d8800215 	stw	r2,8(sp)
   84b28:	003ea006 	br	845ac <__svfscanf_r+0x2f0>
   84b2c:	e08002d0 	cmplti	r2,fp,11
   84b30:	10000c1e 	bne	r2,zero,84b64 <__svfscanf_r+0x8a8>
   84b34:	00bd1fc4 	movi	r2,-2945
   84b38:	a8aa703a 	and	r21,r21,r2
   84b3c:	b1400005 	stb	r5,0(r22)
   84b40:	b5800044 	addi	r22,r22,1
   84b44:	90800117 	ldw	r2,4(r18)
   84b48:	10bfffc4 	addi	r2,r2,-1
   84b4c:	90800115 	stw	r2,4(r18)
   84b50:	0080480e 	bge	zero,r2,84c74 <__svfscanf_r+0x9b8>
   84b54:	21000044 	addi	r4,r4,1
   84b58:	91000015 	stw	r4,0(r18)
   84b5c:	9cffffc4 	addi	r19,r19,-1
   84b60:	983f831e 	bne	r19,zero,84970 <__svfscanf_r+0x6b4>
   84b64:	df000415 	stw	fp,16(sp)
   84b68:	a880400c 	andi	r2,r21,256
   84b6c:	10000426 	beq	r2,zero,84b80 <__svfscanf_r+0x8c4>
   84b70:	d8800617 	ldw	r2,24(sp)
   84b74:	1583de36 	bltu	r2,r22,85af0 <__svfscanf_r+0x1834>
   84b78:	d8800617 	ldw	r2,24(sp)
   84b7c:	b0be6126 	beq	r22,r2,84504 <__svfscanf_r+0x248>
   84b80:	a880040c 	andi	r2,r21,16
   84b84:	1000111e 	bne	r2,zero,84bcc <__svfscanf_r+0x910>
   84b88:	d9000117 	ldw	r4,4(sp)
   84b8c:	d9c00417 	ldw	r7,16(sp)
   84b90:	d9400617 	ldw	r5,24(sp)
   84b94:	d8800517 	ldw	r2,20(sp)
   84b98:	000d883a 	mov	r6,zero
   84b9c:	b0000005 	stb	zero,0(r22)
   84ba0:	103ee83a 	callr	r2
   84ba4:	d9000317 	ldw	r4,12(sp)
   84ba8:	a8c0080c 	andi	r3,r21,32
   84bac:	27000104 	addi	fp,r4,4
   84bb0:	18034a26 	beq	r3,zero,858dc <__svfscanf_r+0x1620>
   84bb4:	20c00017 	ldw	r3,0(r4)
   84bb8:	18800015 	stw	r2,0(r3)
   84bbc:	d8800217 	ldw	r2,8(sp)
   84bc0:	df000315 	stw	fp,12(sp)
   84bc4:	10800044 	addi	r2,r2,1
   84bc8:	d8800215 	stw	r2,8(sp)
   84bcc:	d8800617 	ldw	r2,24(sp)
   84bd0:	b0adc83a 	sub	r22,r22,r2
   84bd4:	b52d883a 	add	r22,r22,r20
   84bd8:	bdaf883a 	add	r23,r23,r22
   84bdc:	003e7306 	br	845ac <__svfscanf_r+0x2f0>
   84be0:	e70f883a 	add	r7,fp,fp
   84be4:	008002b4 	movhi	r2,10
   84be8:	3885883a 	add	r2,r7,r2
   84bec:	1726508f 	ldh	fp,-26302(r2)
   84bf0:	00bd1fc4 	movi	r2,-2945
   84bf4:	a8aa703a 	and	r21,r21,r2
   84bf8:	003fd006 	br	84b3c <__svfscanf_r+0x880>
   84bfc:	a881800c 	andi	r2,r21,1536
   84c00:	10808018 	cmpnei	r2,r2,512
   84c04:	103fd71e 	bne	r2,zero,84b64 <__svfscanf_r+0x8a8>
   84c08:	00bf7fc4 	movi	r2,-513
   84c0c:	a884703a 	and	r2,r21,r2
   84c10:	15414014 	ori	r21,r2,1280
   84c14:	07000404 	movi	fp,16
   84c18:	003fc806 	br	84b3c <__svfscanf_r+0x880>
   84c1c:	a880200c 	andi	r2,r21,128
   84c20:	103fd026 	beq	r2,zero,84b64 <__svfscanf_r+0x8a8>
   84c24:	00bfdfc4 	movi	r2,-129
   84c28:	a8aa703a 	and	r21,r21,r2
   84c2c:	003fc306 	br	84b3c <__svfscanf_r+0x880>
   84c30:	e70f883a 	add	r7,fp,fp
   84c34:	008002b4 	movhi	r2,10
   84c38:	3885883a 	add	r2,r7,r2
   84c3c:	1726508f 	ldh	fp,-26302(r2)
   84c40:	e0800250 	cmplti	r2,fp,9
   84c44:	103fbb26 	beq	r2,zero,84b34 <__svfscanf_r+0x878>
   84c48:	003fc606 	br	84b64 <__svfscanf_r+0x8a8>
   84c4c:	a882000c 	andi	r2,r21,2048
   84c50:	103fba26 	beq	r2,zero,84b3c <__svfscanf_r+0x880>
   84c54:	e000021e 	bne	fp,zero,84c60 <__svfscanf_r+0x9a4>
   84c58:	ad408014 	ori	r21,r21,512
   84c5c:	07000204 	movi	fp,8
   84c60:	a881000c 	andi	r2,r21,1024
   84c64:	10031426 	beq	r2,zero,858b8 <__svfscanf_r+0x15fc>
   84c68:	00be9fc4 	movi	r2,-1409
   84c6c:	a8aa703a 	and	r21,r21,r2
   84c70:	003fb206 	br	84b3c <__svfscanf_r+0x880>
   84c74:	d9000117 	ldw	r4,4(sp)
   84c78:	900b883a 	mov	r5,r18
   84c7c:	0086c540 	call	86c54 <__srefill_r>
   84c80:	103fb626 	beq	r2,zero,84b5c <__svfscanf_r+0x8a0>
   84c84:	003fb706 	br	84b64 <__svfscanf_r+0x8a8>
   84c88:	1800011e 	bne	r3,zero,84c90 <__svfscanf_r+0x9d4>
   84c8c:	00ffffc4 	movi	r3,-1
   84c90:	a880004c 	andi	r2,r21,1
   84c94:	acc0040c 	andi	r19,r21,16
   84c98:	10026e1e 	bne	r2,zero,85654 <__svfscanf_r+0x1398>
   84c9c:	91000017 	ldw	r4,0(r18)
   84ca0:	d9400e04 	addi	r5,sp,56
   84ca4:	20800003 	ldbu	r2,0(r4)
   84ca8:	10809f04 	addi	r2,r2,636
   84cac:	1145883a 	add	r2,r2,r5
   84cb0:	10bf6883 	ldbu	r2,-606(r2)
   84cb4:	10803fcc 	andi	r2,r2,255
   84cb8:	1080201c 	xori	r2,r2,128
   84cbc:	10bfe004 	addi	r2,r2,-128
   84cc0:	9801e526 	beq	r19,zero,85458 <__svfscanf_r+0x119c>
   84cc4:	103e0f26 	beq	r2,zero,84504 <__svfscanf_r+0x248>
   84cc8:	90800117 	ldw	r2,4(r18)
   84ccc:	21000044 	addi	r4,r4,1
   84cd0:	91000015 	stw	r4,0(r18)
   84cd4:	10bfffc4 	addi	r2,r2,-1
   84cd8:	90800115 	stw	r2,4(r18)
   84cdc:	19000060 	cmpeqi	r4,r3,1
   84ce0:	1827883a 	mov	r19,r3
   84ce4:	203fbc1e 	bne	r4,zero,84bd8 <__svfscanf_r+0x91c>
   84ce8:	00800f0e 	bge	zero,r2,84d28 <__svfscanf_r+0xa6c>
   84cec:	90800017 	ldw	r2,0(r18)
   84cf0:	11000003 	ldbu	r4,0(r2)
   84cf4:	10800044 	addi	r2,r2,1
   84cf8:	20c09f04 	addi	r3,r4,636
   84cfc:	d9000e04 	addi	r4,sp,56
   84d00:	1909883a 	add	r4,r3,r4
   84d04:	213f6887 	ldb	r4,-606(r4)
   84d08:	203fb326 	beq	r4,zero,84bd8 <__svfscanf_r+0x91c>
   84d0c:	91000117 	ldw	r4,4(r18)
   84d10:	90800015 	stw	r2,0(r18)
   84d14:	b5800044 	addi	r22,r22,1
   84d18:	20bfffc4 	addi	r2,r4,-1
   84d1c:	90800115 	stw	r2,4(r18)
   84d20:	9dbfad26 	beq	r19,r22,84bd8 <__svfscanf_r+0x91c>
   84d24:	00bff116 	blt	zero,r2,84cec <__svfscanf_r+0xa30>
   84d28:	d9000117 	ldw	r4,4(sp)
   84d2c:	900b883a 	mov	r5,r18
   84d30:	0086c540 	call	86c54 <__srefill_r>
   84d34:	103fed26 	beq	r2,zero,84cec <__svfscanf_r+0xa30>
   84d38:	003fa706 	br	84bd8 <__svfscanf_r+0x91c>
   84d3c:	d9000117 	ldw	r4,4(sp)
   84d40:	db000715 	stw	r12,28(sp)
   84d44:	d8c00615 	stw	r3,24(sp)
   84d48:	0087bf40 	call	87bf4 <_localeconv_r>
   84d4c:	d8c00617 	ldw	r3,24(sp)
   84d50:	13c00017 	ldw	r15,0(r2)
   84d54:	db000717 	ldw	r12,28(sp)
   84d58:	193fffc4 	addi	r4,r3,-1
   84d5c:	21005770 	cmpltui	r4,r4,349
   84d60:	ad41e014 	ori	r21,r21,1920
   84d64:	2001f41e 	bne	r4,zero,85538 <__svfscanf_r+0x127c>
   84d68:	18bfa8c4 	addi	r2,r3,-349
   84d6c:	d8800e15 	stw	r2,56(sp)
   84d70:	00c05744 	movi	r3,349
   84d74:	a027883a 	mov	r19,r20
   84d78:	d8805584 	addi	r2,sp,342
   84d7c:	9d003fcc 	andi	r20,r19,255
   84d80:	d8800615 	stw	r2,24(sp)
   84d84:	1039883a 	mov	fp,r2
   84d88:	60803fcc 	andi	r2,r12,255
   84d8c:	a500201c 	xori	r20,r20,128
   84d90:	1080201c 	xori	r2,r2,128
   84d94:	002d883a 	mov	r22,zero
   84d98:	a53fe004 	addi	r20,r20,-128
   84d9c:	10bfe004 	addi	r2,r2,-128
   84da0:	dc000915 	stw	r16,36(sp)
   84da4:	dc400a15 	stw	r17,40(sp)
   84da8:	a021883a 	mov	r16,r20
   84dac:	b023883a 	mov	r17,r22
   84db0:	9029883a 	mov	r20,r18
   84db4:	d8000d15 	stw	zero,52(sp)
   84db8:	9825883a 	mov	r18,r19
   84dbc:	d8000c15 	stw	zero,48(sp)
   84dc0:	b827883a 	mov	r19,r23
   84dc4:	d8000815 	stw	zero,32(sp)
   84dc8:	a82f883a 	mov	r23,r21
   84dcc:	d8800715 	stw	r2,28(sp)
   84dd0:	602d883a 	mov	r22,r12
   84dd4:	dbc00b15 	stw	r15,44(sp)
   84dd8:	182b883a 	mov	r21,r3
   84ddc:	a1000017 	ldw	r4,0(r20)
   84de0:	21400003 	ldbu	r5,0(r4)
   84de4:	28bff544 	addi	r2,r5,-43
   84de8:	10803fcc 	andi	r2,r2,255
   84dec:	124013e8 	cmpgeui	r9,r2,79
   84df0:	4800541e 	bne	r9,zero,84f44 <__svfscanf_r+0xc88>
   84df4:	100490ba 	slli	r2,r2,2
   84df8:	02400234 	movhi	r9,8
   84dfc:	1253883a 	add	r9,r2,r9
   84e00:	48938217 	ldw	r2,19976(r9)
   84e04:	1000683a 	jmp	r2
   84e08:	00085174 	movhi	zero,8517
   84e0c:	00084f44 	movi	zero,8509
   84e10:	00085174 	movhi	zero,8517
   84e14:	00084f44 	movi	zero,8509
   84e18:	00084f44 	movi	zero,8509
   84e1c:	0008528c 	andi	zero,zero,8522
   84e20:	00084fcc 	andi	zero,zero,8511
   84e24:	00084fcc 	andi	zero,zero,8511
   84e28:	00084fcc 	andi	zero,zero,8511
   84e2c:	00084fcc 	andi	zero,zero,8511
   84e30:	00084fcc 	andi	zero,zero,8511
   84e34:	00084fcc 	andi	zero,zero,8511
   84e38:	00084fcc 	andi	zero,zero,8511
   84e3c:	00084fcc 	andi	zero,zero,8511
   84e40:	00084fcc 	andi	zero,zero,8511
   84e44:	00084f44 	movi	zero,8509
   84e48:	00084f44 	movi	zero,8509
   84e4c:	00084f44 	movi	zero,8509
   84e50:	00084f44 	movi	zero,8509
   84e54:	00084f44 	movi	zero,8509
   84e58:	00084f44 	movi	zero,8509
   84e5c:	00084f44 	movi	zero,8509
   84e60:	00085188 	cmpgei	zero,zero,8518
   84e64:	00084fc4 	movi	zero,8511
   84e68:	00084fc4 	movi	zero,8511
   84e6c:	00084fc4 	movi	zero,8511
   84e70:	00084ff4 	movhi	zero,8511
   84e74:	00085134 	movhi	zero,8516
   84e78:	00084f44 	movi	zero,8509
   84e7c:	00084f44 	movi	zero,8509
   84e80:	0008502c 	andhi	zero,zero,8512
   84e84:	00084f44 	movi	zero,8509
   84e88:	00084f44 	movi	zero,8509
   84e8c:	00084f44 	movi	zero,8509
   84e90:	00084f44 	movi	zero,8509
   84e94:	00085254 	movui	zero,8521
   84e98:	00084f44 	movi	zero,8509
   84e9c:	00085208 	cmpgei	zero,zero,8520
   84ea0:	00084f44 	movi	zero,8509
   84ea4:	00084f44 	movi	zero,8509
   84ea8:	00084f44 	movi	zero,8509
   84eac:	000851ec 	andhi	zero,zero,8519
   84eb0:	00084f44 	movi	zero,8509
   84eb4:	00084f44 	movi	zero,8509
   84eb8:	00084f44 	movi	zero,8509
   84ebc:	000851b4 	movhi	zero,8518
   84ec0:	00085158 	cmpnei	zero,zero,8517
   84ec4:	00084f44 	movi	zero,8509
   84ec8:	00084f44 	movi	zero,8509
   84ecc:	00084f44 	movi	zero,8509
   84ed0:	00084f44 	movi	zero,8509
   84ed4:	00084f44 	movi	zero,8509
   84ed8:	00084f44 	movi	zero,8509
   84edc:	00084f44 	movi	zero,8509
   84ee0:	00085188 	cmpgei	zero,zero,8518
   84ee4:	00084fc4 	movi	zero,8511
   84ee8:	00084fc4 	movi	zero,8511
   84eec:	00084fc4 	movi	zero,8511
   84ef0:	00084ff4 	movhi	zero,8511
   84ef4:	00085134 	movhi	zero,8516
   84ef8:	00084f44 	movi	zero,8509
   84efc:	00084f44 	movi	zero,8509
   84f00:	0008502c 	andhi	zero,zero,8512
   84f04:	00084f44 	movi	zero,8509
   84f08:	00084f44 	movi	zero,8509
   84f0c:	00084f44 	movi	zero,8509
   84f10:	00084f44 	movi	zero,8509
   84f14:	00085254 	movui	zero,8521
   84f18:	00084f44 	movi	zero,8509
   84f1c:	00085208 	cmpgei	zero,zero,8520
   84f20:	00084f44 	movi	zero,8509
   84f24:	00084f44 	movi	zero,8509
   84f28:	00084f44 	movi	zero,8509
   84f2c:	000851ec 	andhi	zero,zero,8519
   84f30:	00084f44 	movi	zero,8509
   84f34:	00084f44 	movi	zero,8509
   84f38:	00084f44 	movi	zero,8509
   84f3c:	000851b4 	movhi	zero,8518
   84f40:	00085158 	cmpnei	zero,zero,8517
   84f44:	d8800b17 	ldw	r2,44(sp)
   84f48:	2a403fcc 	andi	r9,r5,255
   84f4c:	10800003 	ldbu	r2,0(r2)
   84f50:	4880101e 	bne	r9,r2,84f94 <__svfscanf_r+0xcd8>
   84f54:	b880800c 	andi	r2,r23,512
   84f58:	10000e26 	beq	r2,zero,84f94 <__svfscanf_r+0xcd8>
   84f5c:	00bf5fc4 	movi	r2,-641
   84f60:	b8ae703a 	and	r23,r23,r2
   84f64:	dc400815 	stw	r17,32(sp)
   84f68:	e1400005 	stb	r5,0(fp)
   84f6c:	ad7fffc4 	addi	r21,r21,-1
   84f70:	e7000044 	addi	fp,fp,1
   84f74:	a0800117 	ldw	r2,4(r20)
   84f78:	9cc00044 	addi	r19,r19,1
   84f7c:	10bfffc4 	addi	r2,r2,-1
   84f80:	a0800115 	stw	r2,4(r20)
   84f84:	0080ca0e 	bge	zero,r2,852b0 <__svfscanf_r+0xff4>
   84f88:	21000044 	addi	r4,r4,1
   84f8c:	a1000015 	stw	r4,0(r20)
   84f90:	a83f921e 	bne	r21,zero,84ddc <__svfscanf_r+0xb20>
   84f94:	882d883a 	mov	r22,r17
   84f98:	b82b883a 	mov	r21,r23
   84f9c:	dc400a17 	ldw	r17,40(sp)
   84fa0:	982f883a 	mov	r23,r19
   84fa4:	9027883a 	mov	r19,r18
   84fa8:	a025883a 	mov	r18,r20
   84fac:	8029883a 	mov	r20,r16
   84fb0:	dc000917 	ldw	r16,36(sp)
   84fb4:	b0002d26 	beq	r22,zero,8506c <__svfscanf_r+0xdb0>
   84fb8:	00bfbfc4 	movi	r2,-257
   84fbc:	a8aa703a 	and	r21,r21,r2
   84fc0:	00002a06 	br	8506c <__svfscanf_r+0xdb0>
   84fc4:	b882000c 	andi	r2,r23,2048
   84fc8:	103ff226 	beq	r2,zero,84f94 <__svfscanf_r+0xcd8>
   84fcc:	90803fcc 	andi	r2,r18,255
   84fd0:	1080201c 	xori	r2,r2,128
   84fd4:	10bfe004 	addi	r2,r2,-128
   84fd8:	8085883a 	add	r2,r16,r2
   84fdc:	103fed1e 	bne	r2,zero,84f94 <__svfscanf_r+0xcd8>
   84fe0:	00bf9fc4 	movi	r2,-385
   84fe4:	dc000717 	ldw	r16,28(sp)
   84fe8:	b8ae703a 	and	r23,r23,r2
   84fec:	b025883a 	mov	r18,r22
   84ff0:	003fdd06 	br	84f68 <__svfscanf_r+0xcac>
   84ff4:	b882000c 	andi	r2,r23,2048
   84ff8:	10008526 	beq	r2,zero,85210 <__svfscanf_r+0xf54>
   84ffc:	90803fcc 	andi	r2,r18,255
   85000:	1080201c 	xori	r2,r2,128
   85004:	10bfe004 	addi	r2,r2,-128
   85008:	8085883a 	add	r2,r16,r2
   8500c:	103fe11e 	bne	r2,zero,84f94 <__svfscanf_r+0xcd8>
   85010:	b4003fcc 	andi	r16,r22,255
   85014:	00bf9fc4 	movi	r2,-385
   85018:	8400201c 	xori	r16,r16,128
   8501c:	b8ae703a 	and	r23,r23,r2
   85020:	b025883a 	mov	r18,r22
   85024:	843fe004 	addi	r16,r16,-128
   85028:	003fcf06 	br	84f68 <__svfscanf_r+0xcac>
   8502c:	90803fcc 	andi	r2,r18,255
   85030:	1080201c 	xori	r2,r2,128
   85034:	10bfe004 	addi	r2,r2,-128
   85038:	1000b31e 	bne	r2,zero,85308 <__svfscanf_r+0x104c>
   8503c:	8801351e 	bne	r17,zero,85514 <__svfscanf_r+0x1258>
   85040:	b881c00c 	andi	r2,r23,1792
   85044:	1081c018 	cmpnei	r2,r2,1792
   85048:	1002cc26 	beq	r2,zero,85b7c <__svfscanf_r+0x18c0>
   8504c:	b82b883a 	mov	r21,r23
   85050:	dc400a17 	ldw	r17,40(sp)
   85054:	982f883a 	mov	r23,r19
   85058:	9027883a 	mov	r19,r18
   8505c:	a025883a 	mov	r18,r20
   85060:	8029883a 	mov	r20,r16
   85064:	dc000917 	ldw	r16,36(sp)
   85068:	002d883a 	mov	r22,zero
   8506c:	a3bfffc4 	addi	r14,r20,-1
   85070:	738000a8 	cmpgeui	r14,r14,2
   85074:	7002f826 	beq	r14,zero,85c58 <__svfscanf_r+0x199c>
   85078:	98c03fcc 	andi	r3,r19,255
   8507c:	18c0201c 	xori	r3,r3,128
   85080:	18ffe004 	addi	r3,r3,-128
   85084:	18bfffc4 	addi	r2,r3,-1
   85088:	108001e8 	cmpgeui	r2,r2,7
   8508c:	1001f526 	beq	r2,zero,85864 <__svfscanf_r+0x15a8>
   85090:	a880400c 	andi	r2,r21,256
   85094:	10000e26 	beq	r2,zero,850d0 <__svfscanf_r+0xe14>
   85098:	a881000c 	andi	r2,r21,1024
   8509c:	1002fa1e 	bne	r2,zero,85c88 <__svfscanf_r+0x19cc>
   850a0:	e17fffc7 	ldb	r5,-1(fp)
   850a4:	e53fffc4 	addi	r20,fp,-1
   850a8:	bcffffc4 	addi	r19,r23,-1
   850ac:	28801960 	cmpeqi	r2,r5,101
   850b0:	1000021e 	bne	r2,zero,850bc <__svfscanf_r+0xe00>
   850b4:	28801160 	cmpeqi	r2,r5,69
   850b8:	10023726 	beq	r2,zero,85998 <__svfscanf_r+0x16dc>
   850bc:	d9000117 	ldw	r4,4(sp)
   850c0:	900d883a 	mov	r6,r18
   850c4:	982f883a 	mov	r23,r19
   850c8:	00871b80 	call	871b8 <_ungetc_r>
   850cc:	a039883a 	mov	fp,r20
   850d0:	a880040c 	andi	r2,r21,16
   850d4:	103d351e 	bne	r2,zero,845ac <__svfscanf_r+0x2f0>
   850d8:	a881800c 	andi	r2,r21,1536
   850dc:	e0000005 	stb	zero,0(fp)
   850e0:	10810018 	cmpnei	r2,r2,1024
   850e4:	10027e26 	beq	r2,zero,85ae0 <__svfscanf_r+0x1824>
   850e8:	d8800c17 	ldw	r2,48(sp)
   850ec:	1002531e 	bne	r2,zero,85a3c <__svfscanf_r+0x1780>
   850f0:	d9000117 	ldw	r4,4(sp)
   850f4:	d9400617 	ldw	r5,24(sp)
   850f8:	000d883a 	mov	r6,zero
   850fc:	008d5400 	call	8d540 <_strtod_r>
   85100:	1029883a 	mov	r20,r2
   85104:	d8800317 	ldw	r2,12(sp)
   85108:	a900004c 	andi	r4,r21,1
   8510c:	15800104 	addi	r22,r2,4
   85110:	20020c26 	beq	r4,zero,85944 <__svfscanf_r+0x1688>
   85114:	10800017 	ldw	r2,0(r2)
   85118:	15000015 	stw	r20,0(r2)
   8511c:	10c00115 	stw	r3,4(r2)
   85120:	d8800217 	ldw	r2,8(sp)
   85124:	dd800315 	stw	r22,12(sp)
   85128:	10800044 	addi	r2,r2,1
   8512c:	d8800215 	stw	r2,8(sp)
   85130:	003d1e06 	br	845ac <__svfscanf_r+0x2f0>
   85134:	b882000c 	andi	r2,r23,2048
   85138:	1000691e 	bne	r2,zero,852e0 <__svfscanf_r+0x1024>
   8513c:	90803fcc 	andi	r2,r18,255
   85140:	1080201c 	xori	r2,r2,128
   85144:	10bfe004 	addi	r2,r2,-128
   85148:	108000a0 	cmpeqi	r2,r2,2
   8514c:	103f9126 	beq	r2,zero,84f94 <__svfscanf_r+0xcd8>
   85150:	048000c4 	movi	r18,3
   85154:	003f8406 	br	84f68 <__svfscanf_r+0xcac>
   85158:	90803fcc 	andi	r2,r18,255
   8515c:	1080201c 	xori	r2,r2,128
   85160:	10bfe004 	addi	r2,r2,-128
   85164:	108001e0 	cmpeqi	r2,r2,7
   85168:	103f8a26 	beq	r2,zero,84f94 <__svfscanf_r+0xcd8>
   8516c:	04800204 	movi	r18,8
   85170:	003f7d06 	br	84f68 <__svfscanf_r+0xcac>
   85174:	b880200c 	andi	r2,r23,128
   85178:	103f8626 	beq	r2,zero,84f94 <__svfscanf_r+0xcd8>
   8517c:	00bfdfc4 	movi	r2,-129
   85180:	b8ae703a 	and	r23,r23,r2
   85184:	003f7806 	br	84f68 <__svfscanf_r+0xcac>
   85188:	b882000c 	andi	r2,r23,2048
   8518c:	10000526 	beq	r2,zero,851a4 <__svfscanf_r+0xee8>
   85190:	90803fcc 	andi	r2,r18,255
   85194:	1080201c 	xori	r2,r2,128
   85198:	10bfe004 	addi	r2,r2,-128
   8519c:	8085883a 	add	r2,r16,r2
   851a0:	103f9b26 	beq	r2,zero,85010 <__svfscanf_r+0xd54>
   851a4:	80800060 	cmpeqi	r2,r16,1
   851a8:	103f7a26 	beq	r2,zero,84f94 <__svfscanf_r+0xcd8>
   851ac:	04000084 	movi	r16,2
   851b0:	003f6d06 	br	84f68 <__svfscanf_r+0xcac>
   851b4:	b882600c 	andi	r2,r23,2432
   851b8:	10804018 	cmpnei	r2,r2,256
   851bc:	103f751e 	bne	r2,zero,84f94 <__svfscanf_r+0xcd8>
   851c0:	88800058 	cmpnei	r2,r17,1
   851c4:	103f731e 	bne	r2,zero,84f94 <__svfscanf_r+0xcd8>
   851c8:	00bfbfc4 	movi	r2,-257
   851cc:	b884703a 	and	r2,r23,r2
   851d0:	02000c04 	movi	r8,48
   851d4:	e2000005 	stb	r8,0(fp)
   851d8:	15c20014 	ori	r23,r2,2048
   851dc:	ad7fffc4 	addi	r21,r21,-1
   851e0:	e7000044 	addi	fp,fp,1
   851e4:	0023883a 	mov	r17,zero
   851e8:	003f5f06 	br	84f68 <__svfscanf_r+0xcac>
   851ec:	90803fcc 	andi	r2,r18,255
   851f0:	1080201c 	xori	r2,r2,128
   851f4:	10bfe004 	addi	r2,r2,-128
   851f8:	108001a0 	cmpeqi	r2,r2,6
   851fc:	103f6526 	beq	r2,zero,84f94 <__svfscanf_r+0xcd8>
   85200:	048001c4 	movi	r18,7
   85204:	003f5806 	br	84f68 <__svfscanf_r+0xcac>
   85208:	b882000c 	andi	r2,r23,2048
   8520c:	103f6126 	beq	r2,zero,84f94 <__svfscanf_r+0xcd8>
   85210:	b881400c 	andi	r2,r23,1280
   85214:	10810020 	cmpeqi	r2,r2,1024
   85218:	1000031e 	bne	r2,zero,85228 <__svfscanf_r+0xf6c>
   8521c:	b881000c 	andi	r2,r23,1024
   85220:	103f5c26 	beq	r2,zero,84f94 <__svfscanf_r+0xcd8>
   85224:	883f8926 	beq	r17,zero,8504c <__svfscanf_r+0xd90>
   85228:	b880800c 	andi	r2,r23,512
   8522c:	1000041e 	bne	r2,zero,85240 <__svfscanf_r+0xf84>
   85230:	d8800817 	ldw	r2,32(sp)
   85234:	df000d15 	stw	fp,52(sp)
   85238:	8885c83a 	sub	r2,r17,r2
   8523c:	d8800c15 	stw	r2,48(sp)
   85240:	00bc1fc4 	movi	r2,-3969
   85244:	b8ae703a 	and	r23,r23,r2
   85248:	bdc06014 	ori	r23,r23,384
   8524c:	0023883a 	mov	r17,zero
   85250:	003f4506 	br	84f68 <__svfscanf_r+0xcac>
   85254:	8000281e 	bne	r16,zero,852f8 <__svfscanf_r+0x103c>
   85258:	8800031e 	bne	r17,zero,85268 <__svfscanf_r+0xfac>
   8525c:	b881c00c 	andi	r2,r23,1792
   85260:	1081c018 	cmpnei	r2,r2,1792
   85264:	10024926 	beq	r2,zero,85b8c <__svfscanf_r+0x18d0>
   85268:	90803fcc 	andi	r2,r18,255
   8526c:	1080201c 	xori	r2,r2,128
   85270:	10bfe004 	addi	r2,r2,-128
   85274:	12400060 	cmpeqi	r9,r2,1
   85278:	4800021e 	bne	r9,zero,85284 <__svfscanf_r+0xfc8>
   8527c:	10800118 	cmpnei	r2,r2,4
   85280:	103f441e 	bne	r2,zero,84f94 <__svfscanf_r+0xcd8>
   85284:	94800044 	addi	r18,r18,1
   85288:	003f3706 	br	84f68 <__svfscanf_r+0xcac>
   8528c:	b880400c 	andi	r2,r23,256
   85290:	103f4e26 	beq	r2,zero,84fcc <__svfscanf_r+0xd10>
   85294:	00bfdfc4 	movi	r2,-129
   85298:	b8ae703a 	and	r23,r23,r2
   8529c:	d8800e17 	ldw	r2,56(sp)
   852a0:	8c400044 	addi	r17,r17,1
   852a4:	1001a31e 	bne	r2,zero,85934 <__svfscanf_r+0x1678>
   852a8:	ad7fffc4 	addi	r21,r21,-1
   852ac:	003f3106 	br	84f74 <__svfscanf_r+0xcb8>
   852b0:	d9000117 	ldw	r4,4(sp)
   852b4:	a00b883a 	mov	r5,r20
   852b8:	0086c540 	call	86c54 <__srefill_r>
   852bc:	103f351e 	bne	r2,zero,84f94 <__svfscanf_r+0xcd8>
   852c0:	a83ec61e 	bne	r21,zero,84ddc <__svfscanf_r+0xb20>
   852c4:	003f3306 	br	84f94 <__svfscanf_r+0xcd8>
   852c8:	d9000117 	ldw	r4,4(sp)
   852cc:	900b883a 	mov	r5,r18
   852d0:	0086c540 	call	86c54 <__srefill_r>
   852d4:	103cf626 	beq	r2,zero,846b0 <__svfscanf_r+0x3f4>
   852d8:	bcef883a 	add	r23,r23,r19
   852dc:	003cb306 	br	845ac <__svfscanf_r+0x2f0>
   852e0:	90803fcc 	andi	r2,r18,255
   852e4:	1080201c 	xori	r2,r2,128
   852e8:	10bfe004 	addi	r2,r2,-128
   852ec:	8093883a 	add	r9,r16,r2
   852f0:	483f951e 	bne	r9,zero,85148 <__svfscanf_r+0xe8c>
   852f4:	003f4606 	br	85010 <__svfscanf_r+0xd54>
   852f8:	808000a0 	cmpeqi	r2,r16,2
   852fc:	103fda26 	beq	r2,zero,85268 <__svfscanf_r+0xfac>
   85300:	040000c4 	movi	r16,3
   85304:	003f1806 	br	84f68 <__svfscanf_r+0xcac>
   85308:	124000e0 	cmpeqi	r9,r2,3
   8530c:	483fdd1e 	bne	r9,zero,85284 <__svfscanf_r+0xfc8>
   85310:	10800158 	cmpnei	r2,r2,5
   85314:	103fdb26 	beq	r2,zero,85284 <__svfscanf_r+0xfc8>
   85318:	003f1e06 	br	84f94 <__svfscanf_r+0xcd8>
   8531c:	0039883a 	mov	fp,zero
   85320:	003d8c06 	br	84954 <__svfscanf_r+0x698>
   85324:	a801981e 	bne	r21,zero,85988 <__svfscanf_r+0x16cc>
   85328:	d9000317 	ldw	r4,12(sp)
   8532c:	25800017 	ldw	r22,0(r4)
   85330:	24c00104 	addi	r19,r4,4
   85334:	1000421e 	bne	r2,zero,85440 <__svfscanf_r+0x1184>
   85338:	9039883a 	mov	fp,r18
   8533c:	0029883a 	mov	r20,zero
   85340:	9825883a 	mov	r18,r19
   85344:	8827883a 	mov	r19,r17
   85348:	1823883a 	mov	r17,r3
   8534c:	0087b640 	call	87b64 <__locale_mb_cur_max>
   85350:	15026526 	beq	r2,r20,85ce8 <__svfscanf_r+0x1a2c>
   85354:	e0800017 	ldw	r2,0(fp)
   85358:	e1000117 	ldw	r4,4(fp)
   8535c:	a0c09f04 	addi	r3,r20,636
   85360:	11800003 	ldbu	r6,0(r2)
   85364:	d9400e04 	addi	r5,sp,56
   85368:	194b883a 	add	r5,r3,r5
   8536c:	213fffc4 	addi	r4,r4,-1
   85370:	10800044 	addi	r2,r2,1
   85374:	29bfa885 	stb	r6,-350(r5)
   85378:	e1000115 	stw	r4,4(fp)
   8537c:	e0800015 	stw	r2,0(fp)
   85380:	840000d8 	cmpnei	r16,r16,3
   85384:	a5000044 	addi	r20,r20,1
   85388:	8000031e 	bne	r16,zero,85398 <__svfscanf_r+0x10dc>
   8538c:	d8801317 	ldw	r2,76(sp)
   85390:	10800120 	cmpeqi	r2,r2,4
   85394:	10021a1e 	bne	r2,zero,85c00 <__svfscanf_r+0x1944>
   85398:	dc001304 	addi	r16,sp,76
   8539c:	01800204 	movi	r6,8
   853a0:	000b883a 	mov	r5,zero
   853a4:	8009883a 	mov	r4,r16
   853a8:	00879a80 	call	879a8 <memset>
   853ac:	d9000117 	ldw	r4,4(sp)
   853b0:	d8805584 	addi	r2,sp,342
   853b4:	dc000015 	stw	r16,0(sp)
   853b8:	a00f883a 	mov	r7,r20
   853bc:	100d883a 	mov	r6,r2
   853c0:	b00b883a 	mov	r5,r22
   853c4:	d8800615 	stw	r2,24(sp)
   853c8:	008e3bc0 	call	8e3bc <_mbrtowc_r>
   853cc:	1021883a 	mov	r16,r2
   853d0:	10bfffe0 	cmpeqi	r2,r2,-1
   853d4:	1002441e 	bne	r2,zero,85ce8 <__svfscanf_r+0x1a2c>
   853d8:	dd000315 	stw	r20,12(sp)
